

Microchip MPLAB XC8 Assembler V2.31 build 20201012212115 
                                                                                               Tue Feb 09 21:45:33 2021

Microchip MPLAB XC8 C Compiler v2.31 (Free license) build 20201012212115 Og1 
     1                           	processor	16F887
     2                           	pagewidth 120
     3                           	opt	flic
     4                           	psect	strings,global,class=STRING,delta=2,noexec
     5                           	psect	cinit,global,class=CODE,merge=1,delta=2
     6                           	psect	bssBANK0,global,class=BANK0,space=1,delta=1,noexec
     7                           	psect	bssBANK1,global,class=BANK1,space=1,delta=1,noexec
     8                           	psect	clrtext,global,class=CODE,delta=2
     9                           	psect	cstackCOMMON,global,class=COMMON,space=1,delta=1,noexec
    10                           	psect	cstackBANK0,global,class=BANK0,space=1,delta=1,noexec
    11                           	psect	maintext,global,class=CODE,split=1,delta=2
    12                           	psect	text1,local,class=CODE,merge=1,delta=2,group=2
    13                           	psect	text2,local,class=CODE,merge=1,delta=2
    14                           	psect	text3,local,class=CODE,merge=1,delta=2
    15                           	psect	text4,local,class=CODE,merge=1,delta=2
    16                           	psect	text5,local,class=CODE,merge=1,delta=2
    17                           	psect	text6,local,class=CODE,merge=1,delta=2
    18                           	psect	text7,local,class=CODE,merge=1,delta=2,group=1
    19                           	psect	text8,local,class=CODE,merge=1,delta=2
    20                           	psect	text9,local,class=CODE,merge=1,delta=2
    21                           	psect	text10,local,class=CODE,merge=1,delta=2
    22                           	psect	text11,local,class=CODE,merge=1,delta=2
    23                           	psect	text12,local,class=CODE,merge=1,delta=2
    24                           	psect	text13,local,class=CODE,merge=1,delta=2
    25                           	psect	text14,local,class=CODE,merge=1,delta=2
    26                           	psect	text15,local,class=CODE,merge=1,delta=2
    27                           	psect	text16,local,class=CODE,merge=1,delta=2
    28                           	psect	text17,local,class=CODE,merge=1,delta=2
    29                           	psect	text18,local,class=CODE,merge=1,delta=2
    30                           	psect	text19,local,class=CODE,merge=1,delta=2
    31                           	psect	text20,local,class=CODE,merge=1,delta=2,group=1
    32                           	psect	text21,local,class=CODE,merge=1,delta=2,group=1
    33                           	psect	text22,local,class=CODE,merge=1,delta=2,group=1
    34                           	psect	text23,local,class=CODE,merge=1,delta=2,group=1
    35                           	psect	text24,local,class=CODE,merge=1,delta=2
    36                           	psect	config,global,abs,ovrld,class=CONFIG,space=4,delta=2,noexec
    37                           	dabs	1,0x7E,2
    38  0000                     
    39                           ; Version 2.20
    40                           ; Generated 12/02/2020 GMT
    41                           ; 
    42                           ; Copyright © 2020, Microchip Technology Inc. and its subsidiaries ("Microchip")
    43                           ; All rights reserved.
    44                           ; 
    45                           ; This software is developed by Microchip Technology Inc. and its subsidiaries ("Microch
      +                          ip").
    46                           ; 
    47                           ; Redistribution and use in source and binary forms, with or without modification, are
    48                           ; permitted provided that the following conditions are met:
    49                           ; 
    50                           ;     1. Redistributions of source code must retain the above copyright notice, this lis
      +                          t of
    51                           ;        conditions and the following disclaimer.
    52                           ; 
    53                           ;     2. Redistributions in binary form must reproduce the above copyright notice, this 
      +                          list
    54                           ;        of conditions and the following disclaimer in the documentation and/or other
    55                           ;        materials provided with the distribution.
    56                           ; 
    57                           ;     3. Microchip's name may not be used to endorse or promote products derived from th
      +                          is
    58                           ;        software without specific prior written permission.
    59                           ; 
    60                           ; THIS SOFTWARE IS PROVIDED BY MICROCHIP "AS IS" AND ANY EXPRESS OR IMPLIED WARRANTIES,
    61                           ; INCLUDING, BUT NOT LIMITED TO, THE IMPLIED WARRANTIES OF MERCHANTABILITY AND FITNESS F
      +                          OR
    62                           ; PURPOSE ARE DISCLAIMED.  IN NO EVENT SHALL MICROCHIP BE LIABLE FOR ANY DIRECT, INDIREC
      +                          T,
    63                           ; INCIDENTAL, SPECIAL, EXEMPLARY, OR CONSEQUENTIAL DAMAGES (INCLUDING BUT NOT LIMITED TO
    64                           ; PROCUREMENT OF SUBSTITUTE GOODS OR SERVICES; LOSS OF USE, DATA OR PROFITS; OR BUSINESS
    65                           ; INTERRUPTION) HOWSOEVER CAUSED AND ON ANY THEORY OF LIABILITY, WHETHER IN CONTRACT, ST
      +                          RICT
    66                           ; LIABILITY, OR TORT (INCLUDING NEGLIGENCE OR OTHERWISE) ARISING IN ANY WAY OUT OF THE U
      +                          SE OF
    67                           ; THIS SOFTWARE, EVEN IF ADVISED OF THE POSSIBILITY OF SUCH DAMAGE.
    68                           ; 
    69                           ; 
    70                           ; Code-generator required, PIC16F887 Definitions
    71                           ; 
    72                           ; SFR Addresses
    73  0000                     	;# 
    74  0001                     	;# 
    75  0002                     	;# 
    76  0003                     	;# 
    77  0004                     	;# 
    78  0005                     	;# 
    79  0006                     	;# 
    80  0007                     	;# 
    81  0008                     	;# 
    82  0009                     	;# 
    83  000A                     	;# 
    84  000B                     	;# 
    85  000C                     	;# 
    86  000D                     	;# 
    87  000E                     	;# 
    88  000E                     	;# 
    89  000F                     	;# 
    90  0010                     	;# 
    91  0011                     	;# 
    92  0012                     	;# 
    93  0013                     	;# 
    94  0014                     	;# 
    95  0015                     	;# 
    96  0015                     	;# 
    97  0016                     	;# 
    98  0017                     	;# 
    99  0018                     	;# 
   100  0019                     	;# 
   101  001A                     	;# 
   102  001B                     	;# 
   103  001B                     	;# 
   104  001C                     	;# 
   105  001D                     	;# 
   106  001E                     	;# 
   107  001F                     	;# 
   108  0081                     	;# 
   109  0085                     	;# 
   110  0086                     	;# 
   111  0087                     	;# 
   112  0088                     	;# 
   113  0089                     	;# 
   114  008C                     	;# 
   115  008D                     	;# 
   116  008E                     	;# 
   117  008F                     	;# 
   118  0090                     	;# 
   119  0091                     	;# 
   120  0092                     	;# 
   121  0093                     	;# 
   122  0093                     	;# 
   123  0093                     	;# 
   124  0094                     	;# 
   125  0095                     	;# 
   126  0096                     	;# 
   127  0097                     	;# 
   128  0098                     	;# 
   129  0099                     	;# 
   130  009A                     	;# 
   131  009B                     	;# 
   132  009C                     	;# 
   133  009D                     	;# 
   134  009E                     	;# 
   135  009F                     	;# 
   136  0105                     	;# 
   137  0107                     	;# 
   138  0108                     	;# 
   139  0109                     	;# 
   140  010C                     	;# 
   141  010C                     	;# 
   142  010D                     	;# 
   143  010E                     	;# 
   144  010F                     	;# 
   145  0185                     	;# 
   146  0187                     	;# 
   147  0188                     	;# 
   148  0189                     	;# 
   149  018C                     	;# 
   150  018D                     	;# 
   151  0000                     	;# 
   152  0001                     	;# 
   153  0002                     	;# 
   154  0003                     	;# 
   155  0004                     	;# 
   156  0005                     	;# 
   157  0006                     	;# 
   158  0007                     	;# 
   159  0008                     	;# 
   160  0009                     	;# 
   161  000A                     	;# 
   162  000B                     	;# 
   163  000C                     	;# 
   164  000D                     	;# 
   165  000E                     	;# 
   166  000E                     	;# 
   167  000F                     	;# 
   168  0010                     	;# 
   169  0011                     	;# 
   170  0012                     	;# 
   171  0013                     	;# 
   172  0014                     	;# 
   173  0015                     	;# 
   174  0015                     	;# 
   175  0016                     	;# 
   176  0017                     	;# 
   177  0018                     	;# 
   178  0019                     	;# 
   179  001A                     	;# 
   180  001B                     	;# 
   181  001B                     	;# 
   182  001C                     	;# 
   183  001D                     	;# 
   184  001E                     	;# 
   185  001F                     	;# 
   186  0081                     	;# 
   187  0085                     	;# 
   188  0086                     	;# 
   189  0087                     	;# 
   190  0088                     	;# 
   191  0089                     	;# 
   192  008C                     	;# 
   193  008D                     	;# 
   194  008E                     	;# 
   195  008F                     	;# 
   196  0090                     	;# 
   197  0091                     	;# 
   198  0092                     	;# 
   199  0093                     	;# 
   200  0093                     	;# 
   201  0093                     	;# 
   202  0094                     	;# 
   203  0095                     	;# 
   204  0096                     	;# 
   205  0097                     	;# 
   206  0098                     	;# 
   207  0099                     	;# 
   208  009A                     	;# 
   209  009B                     	;# 
   210  009C                     	;# 
   211  009D                     	;# 
   212  009E                     	;# 
   213  009F                     	;# 
   214  0105                     	;# 
   215  0107                     	;# 
   216  0108                     	;# 
   217  0109                     	;# 
   218  010C                     	;# 
   219  010C                     	;# 
   220  010D                     	;# 
   221  010E                     	;# 
   222  010F                     	;# 
   223  0185                     	;# 
   224  0187                     	;# 
   225  0188                     	;# 
   226  0189                     	;# 
   227  018C                     	;# 
   228  018D                     	;# 
   229  0019                     _TXREG	set	25
   230  001E                     _ADRESH	set	30
   231  000B                     _INTCON	set	11
   232  000C                     _PIR1bits	set	12
   233  0009                     _PORTE	set	9
   234  0005                     _PORTA	set	5
   235  0007                     _PORTC	set	7
   236  0006                     _PORTB	set	6
   237  001A                     _RCREG	set	26
   238  0018                     _RCSTAbits	set	24
   239  001F                     _ADCON0bits	set	31
   240  0049                     _RE1	set	73
   241  0048                     _RE0	set	72
   242  0047                     _RD7	set	71
   243  0046                     _RD6	set	70
   244  0045                     _RD5	set	69
   245  0044                     _RD4	set	68
   246  0043                     _RD3	set	67
   247  0042                     _RD2	set	66
   248  0041                     _RD1	set	65
   249  0040                     _RD0	set	64
   250  0081                     _OPTION_REG	set	129
   251  008C                     _PIE1bits	set	140
   252  008F                     _OSCCON	set	143
   253  0089                     _TRISE	set	137
   254  0088                     _TRISD	set	136
   255  0087                     _TRISCbits	set	135
   256  0086                     _TRISB	set	134
   257  0085                     _TRISA	set	133
   258  0098                     _TXSTAbits	set	152
   259  0099                     _SPBRG	set	153
   260  009F                     _ADCON1	set	159
   261  0189                     _ANSELH	set	393
   262  0188                     _ANSEL	set	392
   263                           
   264                           	psect	strings
   265  0000'                    __pstrings:
   266  0000'                    stringtab:
   267  0000'                    __stringtab:
   268                           
   269                           ;	String table - string pointers are 1 byte each
   270  0000' 1BFF               	btfsc	btemp+1,7
   271  0001' 2800'              	ljmp	stringcode
   272  0002' 1383               	bcf	3,7
   273  0003' 187F               	btfsc	btemp+1,0
   274  0004' 1783               	bsf	3,7
   275  0005' 0800               	movf	0,w
   276  0006' 0A84               	incf	4,f
   277  0007' 1903               	skipnz
   278  0008' 0AFF               	incf	btemp+1,f
   279  0009' 0008               	return
   280  000A'                    stringcode:
   281  000A'                    stringdir:
   282  000A' 3000'              	movlw	high stringdir
   283  000B' 008A               	movwf	10
   284  000C' 0804               	movf	4,w
   285  000D' 0A84               	incf	4,f
   286  000E' 0782               	addwf	2,f
   287  000F'                    __stringbase:
   288  000F' 3400               	retlw	0
   289  0010'                    __end_of__stringtab:
   290  0010'                    STR_1:
   291  0010' 3453               	retlw	83	;'S'
   292  0011' 3431               	retlw	49	;'1'
   293  0012' 343A               	retlw	58	;':'
   294  0013' 3420               	retlw	32	;' '
   295  0014' 3420               	retlw	32	;' '
   296  0015' 3420               	retlw	32	;' '
   297  0016' 3420               	retlw	32	;' '
   298  0017' 3453               	retlw	83	;'S'
   299  0018' 3432               	retlw	50	;'2'
   300  0019' 343A               	retlw	58	;':'
   301  001A' 3420               	retlw	32	;' '
   302  001B' 3420               	retlw	32	;' '
   303  001C' 3420               	retlw	32	;' '
   304  001D' 3420               	retlw	32	;' '
   305  001E' 3453               	retlw	83	;'S'
   306  001F' 3433               	retlw	51	;'3'
   307  0020' 343A               	retlw	58	;':'
   308  0021' 3400               	retlw	0
   309  0022'                    STR_2:
   310  0022' 3425               	retlw	37	;'%'
   311  0023' 3431               	retlw	49	;'1'
   312  0024' 342E               	retlw	46	;'.'
   313  0025' 3432               	retlw	50	;'2'
   314  0026' 3466               	retlw	102	;'f'
   315  0027' 3420               	retlw	32	;' '
   316  0028' 3420               	retlw	32	;' '
   317  0029' 3425               	retlw	37	;'%'
   318  002A' 3431               	retlw	49	;'1'
   319  002B' 342E               	retlw	46	;'.'
   320  002C' 3432               	retlw	50	;'2'
   321  002D' 3466               	retlw	102	;'f'
   322  002E' 3400               	retlw	0
   323                           
   324                           	psect	cinit
   325  0000'                    start_initialization:	
   326                           ; #config settings
   327                           
   328  0000'                    __initialization:
   329                           
   330                           ; Clear objects allocated to BANK0
   331  0000' 1383               	bcf	3,7	;select IRP bank0
   332  0001' 3000'              	movlw	low __pbssBANK0
   333  0002' 0084               	movwf	4
   334  0003' 3000'              	movlw	low (__pbssBANK0+8)
   335  0004' 120A' 118A' 2000' 120A' 118A' 	fcall	clear_ram0
   336                           
   337                           ; Clear objects allocated to BANK1
   338  0009' 3000'              	movlw	low __pbssBANK1
   339  000A' 0084               	movwf	4
   340  000B' 3000'              	movlw	low (__pbssBANK1+16)
   341  000C' 120A' 118A' 2000' 120A' 118A' 	fcall	clear_ram0
   342  0011'                    end_of_initialization:	
   343                           ;End of C runtime variable initialization code
   344                           
   345  0011'                    __end_of__initialization:
   346  0011' 0183               	clrf	3
   347  0012' 120A' 118A' 2800'  	ljmp	_main	;jump to C main() function
   348                           
   349                           	psect	bssBANK0
   350  0000'                    __pbssBANK0:
   351  0000'                    _volt2:
   352  0000'                    	ds	4
   353  0004'                    _volt:
   354  0004'                    	ds	4
   355                           
   356                           	psect	bssBANK1
   357  0000'                    __pbssBANK1:
   358  0000'                    _data:
   359  0000'                    	ds	16
   360                           
   361                           	psect	clrtext
   362  0000'                    clear_ram0:	
   363                           ;	Called with FSR containing the base address, and
   364                           ;	W with the last address+1
   365                           
   366  0000' 0064               	clrwdt	;clear the watchdog before getting into this loop
   367  0001'                    clrloop0:
   368  0001' 0180               	clrf	0	;clear RAM location pointed to by FSR
   369  0002' 0A84               	incf	4,f	;increment pointer
   370  0003' 0604               	xorwf	4,w	;XOR with final address
   371  0004' 1903               	btfsc	3,2	;have we reached the end yet?
   372  0005' 3400               	retlw	0	;all done for this memory range, return
   373  0006' 0604               	xorwf	4,w	;XOR again to restore value
   374  0007' 2800'              	goto	clrloop0	;do the next byte
   375                           
   376                           	psect	cstackCOMMON
   377  0000'                    __pcstackCOMMON:
   378  0000'                    ?_CONFIG_IO:
   379  0000'                    ??_CONFIG_IO:	
   380                           ; 1 bytes @ 0x0
   381                           
   382  0000'                    ?_OSCILADOR:	
   383                           ; 1 bytes @ 0x0
   384                           
   385  0000'                    ??_OSCILADOR:	
   386                           ; 1 bytes @ 0x0
   387                           
   388  0000'                    ?_ADC_INTERRUPT:	
   389                           ; 1 bytes @ 0x0
   390                           
   391  0000'                    ??_ADC_INTERRUPT:	
   392                           ; 1 bytes @ 0x0
   393                           
   394  0000'                    ?_ADC_1:	
   395                           ; 1 bytes @ 0x0
   396                           
   397  0000'                    ?_Mandar1:	
   398                           ; 1 bytes @ 0x0
   399                           
   400  0000'                    ?_ADC_2:	
   401                           ; 1 bytes @ 0x0
   402                           
   403  0000'                    ?_Mandar2:	
   404                           ; 1 bytes @ 0x0
   405                           
   406  0000'                    ??__doprnt:	
   407                           ; 1 bytes @ 0x0
   408                           
   409  0000'                    ?_Lcd_Port:	
   410                           ; 1 bytes @ 0x0
   411                           
   412  0000'                    ??_Lcd_Port:	
   413                           ; 1 bytes @ 0x0
   414                           
   415  0000'                    ?_Lcd_Cmd:	
   416                           ; 1 bytes @ 0x0
   417                           
   418  0000'                    ?_Lcd_Init:	
   419                           ; 1 bytes @ 0x0
   420                           
   421  0000'                    ?_Lcd_Write_Char:	
   422                           ; 1 bytes @ 0x0
   423                           
   424  0000'                    ?_ADC_INIT:	
   425                           ; 1 bytes @ 0x0
   426                           
   427  0000'                    ??_ADC_INIT:	
   428                           ; 1 bytes @ 0x0
   429                           
   430  0000'                    ?_Baudios:	
   431                           ; 1 bytes @ 0x0
   432                           
   433  0000'                    ??_Baudios:	
   434                           ; 1 bytes @ 0x0
   435                           
   436  0000'                    ?_config_txsta:	
   437                           ; 1 bytes @ 0x0
   438                           
   439  0000'                    ??_config_txsta:	
   440                           ; 1 bytes @ 0x0
   441                           
   442  0000'                    ?_config_rcsta:	
   443                           ; 1 bytes @ 0x0
   444                           
   445  0000'                    ??_config_rcsta:	
   446                           ; 1 bytes @ 0x0
   447                           
   448  0000'                    ?_main:	
   449                           ; 1 bytes @ 0x0
   450                           
   451  0000'                    ?_sprintf:	
   452                           ; 1 bytes @ 0x0
   453                           
   454  0000'                    ?__Umul8_16:	
   455                           ; 2 bytes @ 0x0
   456                           
   457  0000'                    ?__doprnt:	
   458                           ; 2 bytes @ 0x0
   459                           
   460  0000'                    ?_ADC_CHANNEL:	
   461                           ; 2 bytes @ 0x0
   462                           
   463  0000'                    ?___fltol:	
   464                           ; 2 bytes @ 0x0
   465                           
   466  0000'                    ?___xxtofl:	
   467                           ; 4 bytes @ 0x0
   468                           
   469  0000'                    Lcd_Port@a:	
   470                           ; 4 bytes @ 0x0
   471                           
   472  0000'                    __Umul8_16@multiplicand:	
   473                           ; 1 bytes @ 0x0
   474                           
   475  0000'                    __doprnt$0:	
   476                           ; 1 bytes @ 0x0
   477                           
   478  0000'                    __doprnt$1:	
   479                           ; 1 bytes @ 0x0
   480                           
   481  0000'                    sprintf@f:	
   482                           ; 1 bytes @ 0x0
   483                           
   484  0000'                    ADC_CHANNEL@canal:	
   485                           ; 1 bytes @ 0x0
   486                           
   487  0000'                    ___fltol@f1:	
   488                           ; 2 bytes @ 0x0
   489                           
   490  0000'                    ___xxtofl@val:	
   491                           ; 4 bytes @ 0x0
   492                           
   493                           
   494                           ; 4 bytes @ 0x0
   495  0000'                    	ds	1
   496  0001'                    ??_Lcd_Cmd:
   497  0001'                    ??_Lcd_Write_Char:	
   498                           ; 1 bytes @ 0x1
   499                           
   500  0001'                    __doprnt$2:	
   501                           ; 1 bytes @ 0x1
   502                           
   503                           
   504                           ; 1 bytes @ 0x1
   505  0001'                    	ds	1
   506  0002'                    ??__Umul8_16:
   507  0002'                    ??_ADC_CHANNEL:	
   508                           ; 1 bytes @ 0x2
   509                           
   510  0002'                    Lcd_Write_Char@a:	
   511                           ; 1 bytes @ 0x2
   512                           
   513                           
   514                           ; 1 bytes @ 0x2
   515  0002'                    	ds	1
   516  0003'                    ?_Lcd_Write_String:
   517  0003'                    Lcd_Cmd@a:	
   518                           ; 1 bytes @ 0x3
   519                           
   520  0003'                    Lcd_Write_String@a:	
   521                           ; 1 bytes @ 0x3
   522                           
   523                           
   524                           ; 2 bytes @ 0x3
   525  0003'                    	ds	1
   526  0004'                    ?_Lcd_Set_Cursor:
   527  0004'                    ??_Lcd_Init:	
   528                           ; 1 bytes @ 0x4
   529                           
   530  0004'                    ??___fltol:	
   531                           ; 1 bytes @ 0x4
   532                           
   533  0004'                    ??___xxtofl:	
   534                           ; 1 bytes @ 0x4
   535                           
   536  0004'                    Lcd_Set_Cursor@b:	
   537                           ; 1 bytes @ 0x4
   538                           
   539  0004'                    __Umul8_16@product:	
   540                           ; 1 bytes @ 0x4
   541                           
   542                           
   543                           ; 2 bytes @ 0x4
   544  0004'                    	ds	1
   545  0005'                    ??_Lcd_Set_Cursor:
   546  0005'                    ??_Lcd_Write_String:	
   547                           ; 1 bytes @ 0x5
   548                           
   549                           
   550                           ; 1 bytes @ 0x5
   551  0005'                    	ds	1
   552  0006'                    Lcd_Set_Cursor@a:
   553  0006'                    __Umul8_16@word_mpld:	
   554                           ; 1 bytes @ 0x6
   555                           
   556                           
   557                           ; 2 bytes @ 0x6
   558  0006'                    	ds	1
   559  0007'                    Lcd_Set_Cursor@temp:
   560                           
   561                           ; 1 bytes @ 0x7
   562  0007'                    	ds	1
   563  0008'                    __Umul8_16@multiplier:
   564  0008'                    ___xxtofl@sign:	
   565                           ; 1 bytes @ 0x8
   566                           
   567  0008'                    Lcd_Write_String@i:	
   568                           ; 1 bytes @ 0x8
   569                           
   570                           
   571                           ; 2 bytes @ 0x8
   572  0008'                    	ds	1
   573  0009'                    ??_sprintf:
   574  0009'                    ___fltol@sign1:	
   575                           ; 1 bytes @ 0x9
   576                           
   577  0009'                    ___xxtofl@exp:	
   578                           ; 1 bytes @ 0x9
   579                           
   580                           
   581                           ; 1 bytes @ 0x9
   582  0009'                    	ds	1
   583  000A'                    ___fltol@exp1:
   584  000A'                    ___xxtofl@arg:	
   585                           ; 1 bytes @ 0xA
   586                           
   587                           
   588                           ; 4 bytes @ 0xA
   589  000A'                    	ds	1
   590  000B'                    ??_Mandar1:
   591  000B'                    ??_Mandar2:	
   592                           ; 1 bytes @ 0xB
   593                           
   594                           
   595                           ; 1 bytes @ 0xB
   596  000B'                    	ds	3
   597                           
   598                           	psect	cstackBANK0
   599  0000'                    __pcstackBANK0:
   600  0000'                    ?___flmul:
   601  0000'                    sprintf@ap:	
   602                           ; 4 bytes @ 0x0
   603                           
   604  0000'                    ___flmul@b:	
   605                           ; 1 bytes @ 0x0
   606                           
   607                           
   608                           ; 4 bytes @ 0x0
   609  0000'                    	ds	1
   610  0001'                    sprintf@wh:
   611                           
   612                           ; 1 bytes @ 0x1
   613  0001'                    	ds	1
   614  0002'                    sprintf@pb:
   615                           
   616                           ; 2 bytes @ 0x2
   617  0002'                    	ds	2
   618  0004'                    ___flmul@a:
   619                           
   620                           ; 4 bytes @ 0x4
   621  0004'                    	ds	4
   622  0008'                    ??___flmul:
   623                           
   624                           ; 1 bytes @ 0x8
   625  0008'                    	ds	5
   626  000D'                    ___flmul@sign:
   627                           
   628                           ; 1 bytes @ 0xD
   629  000D'                    	ds	1
   630  000E'                    ___flmul@grs:
   631                           
   632                           ; 4 bytes @ 0xE
   633  000E'                    	ds	4
   634  0012'                    ___flmul@aexp:
   635                           
   636                           ; 1 bytes @ 0x12
   637  0012'                    	ds	1
   638  0013'                    ___flmul@bexp:
   639                           
   640                           ; 1 bytes @ 0x13
   641  0013'                    	ds	1
   642  0014'                    ___flmul@prod:
   643                           
   644                           ; 4 bytes @ 0x14
   645  0014'                    	ds	4
   646  0018'                    ___flmul@temp:
   647                           
   648                           ; 2 bytes @ 0x18
   649  0018'                    	ds	2
   650  001A'                    ?___fldiv:
   651  001A'                    ___fldiv@a:	
   652                           ; 4 bytes @ 0x1A
   653                           
   654                           
   655                           ; 4 bytes @ 0x1A
   656  001A'                    	ds	4
   657  001E'                    ___fldiv@b:
   658                           
   659                           ; 4 bytes @ 0x1E
   660  001E'                    	ds	4
   661  0022'                    ??___fldiv:
   662                           
   663                           ; 1 bytes @ 0x22
   664  0022'                    	ds	5
   665  0027'                    ___fldiv@rem:
   666                           
   667                           ; 4 bytes @ 0x27
   668  0027'                    	ds	4
   669  002B'                    ___fldiv@sign:
   670                           
   671                           ; 1 bytes @ 0x2B
   672  002B'                    	ds	1
   673  002C'                    ___fldiv@new_exp:
   674                           
   675                           ; 2 bytes @ 0x2C
   676  002C'                    	ds	2
   677  002E'                    ___fldiv@grs:
   678                           
   679                           ; 4 bytes @ 0x2E
   680  002E'                    	ds	4
   681  0032'                    ___fldiv@bexp:
   682                           
   683                           ; 1 bytes @ 0x32
   684  0032'                    	ds	1
   685  0033'                    ___fldiv@aexp:
   686                           
   687                           ; 1 bytes @ 0x33
   688  0033'                    	ds	1
   689  0034'                    ??_ADC_1:
   690  0034'                    ??_ADC_2:	
   691                           ; 1 bytes @ 0x34
   692                           
   693                           
   694                           ; 1 bytes @ 0x34
   695  0034'                    	ds	4
   696  0038'                    ??_main:
   697                           
   698                           ; 1 bytes @ 0x38
   699  0038'                    	ds	2
   700                           
   701                           	psect	maintext
   702  0000'                    __pmaintext:	
   703 ;;
   704 ;;Main: autosize = 0, tempsize = 2, incstack = 0, save=0
   705 ;;
   706 ;; *************** function _main *****************
   707 ;; Defined at:
   708 ;;		line 62 in file "Laboratorio_03.c"
   709 ;; Parameters:    Size  Location     Type
   710 ;;		None
   711 ;; Auto vars:     Size  Location     Type
   712 ;;		None
   713 ;; Return value:  Size  Location     Type
   714 ;;                  1    wreg      void 
   715 ;; Registers used:
   716 ;;		wreg, fsr0l, fsr0h, fsr1l, fsr1h, fsr1l, fsr1h, status,2, status,0, btemp+1, pclath, cstack
   717 ;; Tracked objects:
   718 ;;		On entry : B00/0
   719 ;;		On exit  : 0/0
   720 ;;		Unchanged: 0/0
   721 ;; Data sizes:     COMMON   BANK0   BANK1   BANK3   BANK2
   722 ;;      Params:         0       0       0       0       0
   723 ;;      Locals:         0       0       0       0       0
   724 ;;      Temps:          0       2       0       0       0
   725 ;;      Totals:         0       2       0       0       0
   726 ;;Total ram usage:        2 bytes
   727 ;; Hardware stack levels required when called:    3
   728 ;; This function calls:
   729 ;;		_ADC_1
   730 ;;		_ADC_2
   731 ;;		_ADC_INIT
   732 ;;		_ADC_INTERRUPT
   733 ;;		_Baudios
   734 ;;		_CONFIG_IO
   735 ;;		_Lcd_Init
   736 ;;		_Lcd_Set_Cursor
   737 ;;		_Lcd_Write_String
   738 ;;		_Mandar1
   739 ;;		_Mandar2
   740 ;;		_OSCILADOR
   741 ;;		_config_rcsta
   742 ;;		_config_txsta
   743 ;;		_sprintf
   744 ;; This function is called by:
   745 ;;		Startup code after reset
   746 ;; This function uses a non-reentrant model
   747 ;;
   748                           
   749                           
   750                           ;psect for function _main
   751  0000'                    _main:
   752  0000'                    l1959:	
   753                           ;incstack = 0
   754                           ; Regs used in _main: [allreg]
   755                           
   756                           
   757                           ;Laboratorio_03.c: 63:     CONFIG_IO();
   758  0000' 120A' 118A' 2000' 120A' 118A' 	fcall	_CONFIG_IO
   759                           
   760                           ;Laboratorio_03.c: 64:     OSCILADOR();
   761  0005' 120A' 118A' 2000' 120A' 118A' 	fcall	_OSCILADOR
   762  000A'                    l1961:
   763                           
   764                           ;Laboratorio_03.c: 65:     ADC_INIT();
   765  000A' 120A' 118A' 2000' 120A' 118A' 	fcall	_ADC_INIT
   766  000F'                    l1963:
   767                           
   768                           ;Laboratorio_03.c: 66:     ADC_INTERRUPT();
   769  000F' 120A' 118A' 2000' 120A' 118A' 	fcall	_ADC_INTERRUPT
   770                           
   771                           ;Laboratorio_03.c: 67:     Baudios();
   772  0014' 120A' 118A' 2000' 120A' 118A' 	fcall	_Baudios
   773  0019'                    l1965:
   774                           
   775                           ;Laboratorio_03.c: 68:     config_txsta();
   776  0019' 120A' 118A' 2000' 120A' 118A' 	fcall	_config_txsta
   777  001E'                    l1967:
   778                           
   779                           ;Laboratorio_03.c: 69:     config_rcsta();
   780  001E' 120A' 118A' 2000' 120A' 118A' 	fcall	_config_rcsta
   781                           
   782                           ;Laboratorio_03.c: 70:     Lcd_Init();
   783  0023' 120A' 118A' 2000' 120A' 118A' 	fcall	_Lcd_Init
   784                           
   785                           ;Laboratorio_03.c: 72:     Lcd_Set_Cursor(1, 1);
   786  0028' 0184'              	clrf	Lcd_Set_Cursor@b
   787  0029' 0A84'              	incf	Lcd_Set_Cursor@b,f
   788  002A' 3001               	movlw	1
   789  002B' 120A' 118A' 2000' 120A' 118A' 	fcall	_Lcd_Set_Cursor
   790  0030'                    l1969:
   791                           
   792                           ;Laboratorio_03.c: 73:     Lcd_Write_String("S1:    S2:    S3:");
   793  0030' 3001               	movlw	(low ((STR_1-__stringbase)| (0+32768)))& (0+255)
   794  0031' 0083'              	movwf	Lcd_Write_String@a
   795  0032' 3080               	movlw	128
   796  0033' 0084'              	movwf	Lcd_Write_String@a+1
   797  0034' 120A' 118A' 2000' 120A' 118A' 	fcall	_Lcd_Write_String
   798  0039'                    l1971:
   799                           
   800                           ;Laboratorio_03.c: 77:         ADC_1();
   801  0039' 120A' 118A' 2000' 120A' 118A' 	fcall	_ADC_1
   802                           
   803                           ;Laboratorio_03.c: 78:         Mandar1();
   804  003E' 120A' 118A' 2000' 120A' 118A' 	fcall	_Mandar1
   805  0043'                    l1973:
   806                           
   807                           ;Laboratorio_03.c: 79:         _delay((unsigned long)((1)*(8000000/4000.0)));
   808  0043' 3003               	movlw	3
   809  0044' 1283               	bcf	3,5	;RP0=0, select bank0
   810  0045' 1303               	bcf	3,6	;RP1=0, select bank0
   811  0046' 00B9'              	movwf	??_main+1
   812  0047' 3097               	movlw	151
   813  0048' 00B8'              	movwf	??_main
   814  0049'                    u2177:
   815  0049' 0BB8'              	decfsz	??_main,f
   816  004A' 2800'              	goto	u2177
   817  004B' 0BB9'              	decfsz	??_main+1,f
   818  004C' 2800'              	goto	u2177
   819  004D'                    l1975:
   820                           
   821                           ;Laboratorio_03.c: 81:         ADC_2();
   822  004D' 120A' 118A' 2000' 120A' 118A' 	fcall	_ADC_2
   823  0052'                    l1977:
   824                           
   825                           ;Laboratorio_03.c: 82:         Mandar2();
   826  0052' 120A' 118A' 2000' 120A' 118A' 	fcall	_Mandar2
   827  0057'                    l1979:
   828                           
   829                           ;Laboratorio_03.c: 83:         _delay((unsigned long)((1)*(8000000/4000.0)));
   830  0057' 3003               	movlw	3
   831  0058' 1283               	bcf	3,5	;RP0=0, select bank0
   832  0059' 1303               	bcf	3,6	;RP1=0, select bank0
   833  005A' 00B9'              	movwf	??_main+1
   834  005B' 3097               	movlw	151
   835  005C' 00B8'              	movwf	??_main
   836  005D'                    u2187:
   837  005D' 0BB8'              	decfsz	??_main,f
   838  005E' 2800'              	goto	u2187
   839  005F' 0BB9'              	decfsz	??_main+1,f
   840  0060' 2800'              	goto	u2187
   841  0061'                    l1981:
   842                           
   843                           ;Laboratorio_03.c: 85:         sprintf(data, "%1.2f  " "%1.2f", volt, volt2);
   844  0061' 3013               	movlw	(low ((STR_2-__stringbase)| (0+32768)))& (0+255)
   845  0062' 1283               	bcf	3,5	;RP0=0, select bank0
   846  0063' 1303               	bcf	3,6	;RP1=0, select bank0
   847  0064' 00B8'              	movwf	??_main
   848  0065' 0838'              	movf	??_main,w
   849  0066' 0080'              	movwf	sprintf@f
   850  0067' 0807'              	movf	_volt+3,w
   851  0068' 0084'              	movwf	?_sprintf+4
   852  0069' 0806'              	movf	_volt+2,w
   853  006A' 0083'              	movwf	?_sprintf+3
   854  006B' 0805'              	movf	_volt+1,w
   855  006C' 0082'              	movwf	?_sprintf+2
   856  006D' 0804'              	movf	_volt,w
   857  006E' 0081'              	movwf	?_sprintf+1
   858  006F' 0803'              	movf	_volt2+3,w
   859  0070' 0088'              	movwf	?_sprintf+8
   860  0071' 0802'              	movf	_volt2+2,w
   861  0072' 0087'              	movwf	?_sprintf+7
   862  0073' 0801'              	movf	_volt2+1,w
   863  0074' 0086'              	movwf	?_sprintf+6
   864  0075' 0800'              	movf	_volt2,w
   865  0076' 0085'              	movwf	?_sprintf+5
   866  0077' 3000'              	movlw	(low (_data| 0))& (0+255)
   867  0078' 120A' 118A' 2000' 120A' 118A' 	fcall	_sprintf
   868  007D'                    l1983:
   869                           
   870                           ;Laboratorio_03.c: 87:         Lcd_Set_Cursor(2, 1);
   871  007D' 0184'              	clrf	Lcd_Set_Cursor@b
   872  007E' 0A84'              	incf	Lcd_Set_Cursor@b,f
   873  007F' 3002               	movlw	2
   874  0080' 120A' 118A' 2000' 120A' 118A' 	fcall	_Lcd_Set_Cursor
   875  0085'                    l1985:
   876                           
   877                           ;Laboratorio_03.c: 89:         Lcd_Write_String(data);
   878  0085' 3000'              	movlw	(low (_data| 0))& (0+255)
   879  0086' 0083'              	movwf	Lcd_Write_String@a
   880  0087' 3000               	movlw	0
   881  0088' 0084'              	movwf	Lcd_Write_String@a+1
   882  0089' 120A' 118A' 2000' 120A' 118A' 	fcall	_Lcd_Write_String
   883  008E' 2800'              	goto	l1971
   884  008F' 120A' 118A' 2800'  	ljmp	start
   885  0092'                    __end_of_main:
   886                           
   887                           	psect	text1
   888  0000'                    __ptext1:	
   889 ;; *************** function _sprintf *****************
   890 ;; Defined at:
   891 ;;		line 13 in file "C:\Program Files\Microchip\xc8\v2.31\pic\sources\c90\common\sprintf.c"
   892 ;; Parameters:    Size  Location     Type
   893 ;;  wh              1    wreg     PTR unsigned char 
   894 ;;		 -> data(16), 
   895 ;;  f               1    0[COMMON] PTR const unsigned char 
   896 ;;		 -> STR_2(13), 
   897 ;; Auto vars:     Size  Location     Type
   898 ;;  wh              1    1[BANK0 ] PTR unsigned char 
   899 ;;		 -> data(16), 
   900 ;;  pb              2    2[BANK0 ] struct __prbuf
   901 ;;  ap              1    0[BANK0 ] PTR void [1]
   902 ;;		 -> ?_sprintf(2), 
   903 ;; Return value:  Size  Location     Type
   904 ;;                  2    0[COMMON] int 
   905 ;; Registers used:
   906 ;;		wreg, fsr0l, fsr0h, fsr1l, fsr1h, fsr1l, fsr1h, status,2, status,0, btemp+1, pclath, cstack
   907 ;; Tracked objects:
   908 ;;		On entry : 0/0
   909 ;;		On exit  : 0/0
   910 ;;		Unchanged: 0/0
   911 ;; Data sizes:     COMMON   BANK0   BANK1   BANK3   BANK2
   912 ;;      Params:         9       0       0       0       0
   913 ;;      Locals:         0       4       0       0       0
   914 ;;      Temps:          2       0       0       0       0
   915 ;;      Totals:        11       4       0       0       0
   916 ;;Total ram usage:       15 bytes
   917 ;; Hardware stack levels used:    1
   918 ;; Hardware stack levels required when called:    1
   919 ;; This function calls:
   920 ;;		__doprnt
   921 ;; This function is called by:
   922 ;;		_main
   923 ;; This function uses a non-reentrant model
   924 ;;
   925                           
   926                           
   927                           ;psect for function _sprintf
   928  0000'                    _sprintf:
   929                           
   930                           ;incstack = 0
   931                           ; Regs used in _sprintf: [allreg]
   932                           ;sprintf@wh stored from wreg
   933  0000' 1283               	bcf	3,5	;RP0=0, select bank0
   934  0001' 1303               	bcf	3,6	;RP1=0, select bank0
   935  0002' 0081'              	movwf	sprintf@wh
   936  0003'                    l1941:
   937  0003' 0801'              	movf	sprintf@wh,w
   938  0004' 0089'              	movwf	??_sprintf
   939  0005' 0809'              	movf	??_sprintf,w
   940  0006' 0082'              	movwf	sprintf@pb
   941  0007'                    l1943:
   942  0007' 0180'              	clrf	low ((sprintf@pb| 0+1))
   943  0008'                    l1945:
   944  0008' 3000'              	movlw	(low ((?_sprintf| 0+1)))& (0+255)
   945  0009' 0089'              	movwf	??_sprintf
   946  000A' 0809'              	movf	??_sprintf,w
   947  000B' 0080'              	movwf	sprintf@ap
   948  000C'                    l1947:
   949  000C' 0800'              	movf	sprintf@f,w
   950  000D' 0089'              	movwf	??_sprintf
   951  000E' 0809'              	movf	??_sprintf,w
   952  000F' 0080'              	movwf	__doprnt$1
   953  0010' 3000'              	movlw	(low (sprintf@ap| 0))& (0+255)
   954  0011' 008A'              	movwf	??_sprintf+1
   955  0012' 080A'              	movf	??_sprintf+1,w
   956  0013' 0081'              	movwf	__doprnt$2
   957  0014' 3000'              	movlw	(low (sprintf@pb| 0))& (0+255)
   958  0015' 120A' 118A' 2000' 120A' 118A' 	fcall	__doprnt
   959  001A'                    l1949:
   960  001A' 1283               	bcf	3,5	;RP0=0, select bank0
   961  001B' 1303               	bcf	3,6	;RP1=0, select bank0
   962  001C' 0802'              	movf	sprintf@pb,w
   963  001D' 0084               	movwf	4
   964  001E' 1383               	bcf	3,7	;select IRP bank0
   965  001F' 0180               	clrf	0
   966  0020'                    l757:
   967  0020' 0008               	return
   968  0021'                    __end_of_sprintf:
   969                           
   970                           	psect	text2
   971  0000'                    __ptext2:	
   972 ;; *************** function _config_txsta *****************
   973 ;; Defined at:
   974 ;;		line 20 in file "./LIB_USART.h"
   975 ;; Parameters:    Size  Location     Type
   976 ;;		None
   977 ;; Auto vars:     Size  Location     Type
   978 ;;		None
   979 ;; Return value:  Size  Location     Type
   980 ;;                  1    wreg      void 
   981 ;; Registers used:
   982 ;;		None
   983 ;; Tracked objects:
   984 ;;		On entry : 0/0
   985 ;;		On exit  : 0/0
   986 ;;		Unchanged: 0/0
   987 ;; Data sizes:     COMMON   BANK0   BANK1   BANK3   BANK2
   988 ;;      Params:         0       0       0       0       0
   989 ;;      Locals:         0       0       0       0       0
   990 ;;      Temps:          0       0       0       0       0
   991 ;;      Totals:         0       0       0       0       0
   992 ;;Total ram usage:        0 bytes
   993 ;; Hardware stack levels used:    1
   994 ;; This function calls:
   995 ;;		Nothing
   996 ;; This function is called by:
   997 ;;		_main
   998 ;; This function uses a non-reentrant model
   999 ;;
  1000                           
  1001                           
  1002                           ;psect for function _config_txsta
  1003  0000'                    _config_txsta:
  1004  0000'                    l1883:	
  1005                           ;incstack = 0
  1006                           ; Regs used in _config_txsta: []
  1007                           
  1008                           
  1009                           ;./LIB_USART.h: 21:     TXSTAbits.CSRC = 0;
  1010  0000' 1683               	bsf	3,5	;RP0=1, select bank1
  1011  0001' 1303               	bcf	3,6	;RP1=0, select bank1
  1012  0002' 1398               	bcf	24,7	;volatile
  1013                           
  1014                           ;./LIB_USART.h: 22:     TXSTAbits.TX9 = 0;
  1015  0003' 1318               	bcf	24,6	;volatile
  1016                           
  1017                           ;./LIB_USART.h: 23:     TXSTAbits.TXEN = 1;
  1018  0004' 1698               	bsf	24,5	;volatile
  1019                           
  1020                           ;./LIB_USART.h: 24:     TXSTAbits.SYNC = 0;
  1021  0005' 1218               	bcf	24,4	;volatile
  1022                           
  1023                           ;./LIB_USART.h: 25:     TXSTAbits.BRGH = 0;
  1024  0006' 1118               	bcf	24,2	;volatile
  1025                           
  1026                           ;./LIB_USART.h: 26:     TXSTAbits.TRMT = 0;
  1027  0007' 1098               	bcf	24,1	;volatile
  1028  0008'                    l166:
  1029  0008' 0008               	return
  1030  0009'                    __end_of_config_txsta:
  1031                           
  1032                           	psect	text3
  1033  0000'                    __ptext3:	
  1034 ;; *************** function _config_rcsta *****************
  1035 ;; Defined at:
  1036 ;;		line 29 in file "./LIB_USART.h"
  1037 ;; Parameters:    Size  Location     Type
  1038 ;;		None
  1039 ;; Auto vars:     Size  Location     Type
  1040 ;;		None
  1041 ;; Return value:  Size  Location     Type
  1042 ;;                  1    wreg      void 
  1043 ;; Registers used:
  1044 ;;		status,2
  1045 ;; Tracked objects:
  1046 ;;		On entry : 0/0
  1047 ;;		On exit  : 0/0
  1048 ;;		Unchanged: 0/0
  1049 ;; Data sizes:     COMMON   BANK0   BANK1   BANK3   BANK2
  1050 ;;      Params:         0       0       0       0       0
  1051 ;;      Locals:         0       0       0       0       0
  1052 ;;      Temps:          0       0       0       0       0
  1053 ;;      Totals:         0       0       0       0       0
  1054 ;;Total ram usage:        0 bytes
  1055 ;; Hardware stack levels used:    1
  1056 ;; This function calls:
  1057 ;;		Nothing
  1058 ;; This function is called by:
  1059 ;;		_main
  1060 ;; This function uses a non-reentrant model
  1061 ;;
  1062                           
  1063                           
  1064                           ;psect for function _config_rcsta
  1065  0000'                    _config_rcsta:
  1066  0000'                    l1885:	
  1067                           ;incstack = 0
  1068                           ; Regs used in _config_rcsta: [status,2]
  1069                           
  1070                           
  1071                           ;./LIB_USART.h: 30:     RCSTAbits.SPEN = 1;
  1072  0000' 1283               	bcf	3,5	;RP0=0, select bank0
  1073  0001' 1303               	bcf	3,6	;RP1=0, select bank0
  1074  0002' 1798               	bsf	24,7	;volatile
  1075                           
  1076                           ;./LIB_USART.h: 31:     RCSTAbits.RX9 = 0;
  1077  0003' 1318               	bcf	24,6	;volatile
  1078                           
  1079                           ;./LIB_USART.h: 32:     RCSTAbits.SREN = 0;
  1080  0004' 1298               	bcf	24,5	;volatile
  1081                           
  1082                           ;./LIB_USART.h: 33:     RCSTAbits.CREN = 1;
  1083  0005' 1618               	bsf	24,4	;volatile
  1084  0006'                    l1887:
  1085                           
  1086                           ;./LIB_USART.h: 34:     RCREG = 0;
  1087  0006' 019A               	clrf	26	;volatile
  1088  0007'                    l169:
  1089  0007' 0008               	return
  1090  0008'                    __end_of_config_rcsta:
  1091                           
  1092                           	psect	text4
  1093  0000'                    __ptext4:	
  1094 ;; *************** function _OSCILADOR *****************
  1095 ;; Defined at:
  1096 ;;		line 113 in file "Laboratorio_03.c"
  1097 ;; Parameters:    Size  Location     Type
  1098 ;;		None
  1099 ;; Auto vars:     Size  Location     Type
  1100 ;;		None
  1101 ;; Return value:  Size  Location     Type
  1102 ;;                  1    wreg      void 
  1103 ;; Registers used:
  1104 ;;		wreg
  1105 ;; Tracked objects:
  1106 ;;		On entry : 0/0
  1107 ;;		On exit  : 0/0
  1108 ;;		Unchanged: 0/0
  1109 ;; Data sizes:     COMMON   BANK0   BANK1   BANK3   BANK2
  1110 ;;      Params:         0       0       0       0       0
  1111 ;;      Locals:         0       0       0       0       0
  1112 ;;      Temps:          0       0       0       0       0
  1113 ;;      Totals:         0       0       0       0       0
  1114 ;;Total ram usage:        0 bytes
  1115 ;; Hardware stack levels used:    1
  1116 ;; This function calls:
  1117 ;;		Nothing
  1118 ;; This function is called by:
  1119 ;;		_main
  1120 ;; This function uses a non-reentrant model
  1121 ;;
  1122                           
  1123                           
  1124                           ;psect for function _OSCILADOR
  1125  0000'                    _OSCILADOR:
  1126  0000'                    l1899:	
  1127                           ;incstack = 0
  1128                           ; Regs used in _OSCILADOR: [wreg]
  1129                           
  1130                           
  1131                           ;Laboratorio_03.c: 114:     OSCCON = 0b01110001;
  1132  0000' 3071               	movlw	113
  1133  0001' 1683               	bsf	3,5	;RP0=1, select bank1
  1134  0002' 1303               	bcf	3,6	;RP1=0, select bank1
  1135  0003' 008F               	movwf	15	;volatile
  1136  0004'                    l189:
  1137  0004' 0008               	return
  1138  0005'                    __end_of_OSCILADOR:
  1139                           
  1140                           	psect	text5
  1141  0000'                    __ptext5:	
  1142 ;; *************** function _Mandar2 *****************
  1143 ;; Defined at:
  1144 ;;		line 159 in file "Laboratorio_03.c"
  1145 ;; Parameters:    Size  Location     Type
  1146 ;;		None
  1147 ;; Auto vars:     Size  Location     Type
  1148 ;;		None
  1149 ;; Return value:  Size  Location     Type
  1150 ;;                  1    wreg      void 
  1151 ;; Registers used:
  1152 ;;		wreg, status,2, status,0, pclath, cstack
  1153 ;; Tracked objects:
  1154 ;;		On entry : 0/0
  1155 ;;		On exit  : 0/0
  1156 ;;		Unchanged: 0/0
  1157 ;; Data sizes:     COMMON   BANK0   BANK1   BANK3   BANK2
  1158 ;;      Params:         0       0       0       0       0
  1159 ;;      Locals:         0       0       0       0       0
  1160 ;;      Temps:          0       0       0       0       0
  1161 ;;      Totals:         0       0       0       0       0
  1162 ;;Total ram usage:        0 bytes
  1163 ;; Hardware stack levels used:    1
  1164 ;; Hardware stack levels required when called:    1
  1165 ;; This function calls:
  1166 ;;		___fltol
  1167 ;; This function is called by:
  1168 ;;		_main
  1169 ;; This function uses a non-reentrant model
  1170 ;;
  1171                           
  1172                           
  1173                           ;psect for function _Mandar2
  1174  0000'                    _Mandar2:
  1175  0000'                    l1939:	
  1176                           ;incstack = 0
  1177                           ; Regs used in _Mandar2: [wreg+status,2+status,0+pclath+cstack]
  1178                           
  1179                           
  1180                           ;Laboratorio_03.c: 160:     TXREG = volt2;
  1181  0000' 1283               	bcf	3,5	;RP0=0, select bank0
  1182  0001' 1303               	bcf	3,6	;RP1=0, select bank0
  1183  0002' 0803'              	movf	_volt2+3,w
  1184  0003' 0083'              	movwf	___fltol@f1+3
  1185  0004' 0802'              	movf	_volt2+2,w
  1186  0005' 0082'              	movwf	___fltol@f1+2
  1187  0006' 0801'              	movf	_volt2+1,w
  1188  0007' 0081'              	movwf	___fltol@f1+1
  1189  0008' 0800'              	movf	_volt2,w
  1190  0009' 0080'              	movwf	___fltol@f1
  1191  000A' 120A' 118A' 2000' 120A' 118A' 	fcall	___fltol
  1192  000F' 0800'              	movf	?___fltol,w
  1193  0010' 1283               	bcf	3,5	;RP0=0, select bank0
  1194  0011' 1303               	bcf	3,6	;RP1=0, select bank0
  1195  0012' 0099               	movwf	25	;volatile
  1196  0013'                    l213:	
  1197                           ;Laboratorio_03.c: 163:     }
  1198                           
  1199                           
  1200                           ;Laboratorio_03.c: 161:     while (TXSTAbits.TRMT == 1) {
  1201  0013' 1683               	bsf	3,5	;RP0=1, select bank1
  1202  0014' 1303               	bcf	3,6	;RP1=0, select bank1
  1203  0015' 0818               	movf	24,w	;volatile
  1204  0016'                    l215:
  1205  0016' 0008               	return
  1206  0017'                    __end_of_Mandar2:
  1207                           
  1208                           	psect	text6
  1209  0000'                    __ptext6:	
  1210 ;; *************** function _Mandar1 *****************
  1211 ;; Defined at:
  1212 ;;		line 139 in file "Laboratorio_03.c"
  1213 ;; Parameters:    Size  Location     Type
  1214 ;;		None
  1215 ;; Auto vars:     Size  Location     Type
  1216 ;;		None
  1217 ;; Return value:  Size  Location     Type
  1218 ;;                  1    wreg      void 
  1219 ;; Registers used:
  1220 ;;		wreg, status,2, status,0, pclath, cstack
  1221 ;; Tracked objects:
  1222 ;;		On entry : 0/0
  1223 ;;		On exit  : 0/0
  1224 ;;		Unchanged: 0/0
  1225 ;; Data sizes:     COMMON   BANK0   BANK1   BANK3   BANK2
  1226 ;;      Params:         0       0       0       0       0
  1227 ;;      Locals:         0       0       0       0       0
  1228 ;;      Temps:          0       0       0       0       0
  1229 ;;      Totals:         0       0       0       0       0
  1230 ;;Total ram usage:        0 bytes
  1231 ;; Hardware stack levels used:    1
  1232 ;; Hardware stack levels required when called:    1
  1233 ;; This function calls:
  1234 ;;		___fltol
  1235 ;; This function is called by:
  1236 ;;		_main
  1237 ;; This function uses a non-reentrant model
  1238 ;;
  1239                           
  1240                           
  1241                           ;psect for function _Mandar1
  1242  0000'                    _Mandar1:
  1243  0000'                    l1921:	
  1244                           ;incstack = 0
  1245                           ; Regs used in _Mandar1: [wreg+status,2+status,0+pclath+cstack]
  1246                           
  1247                           
  1248                           ;Laboratorio_03.c: 140:     TXREG = volt;
  1249  0000' 1283               	bcf	3,5	;RP0=0, select bank0
  1250  0001' 1303               	bcf	3,6	;RP1=0, select bank0
  1251  0002' 0807'              	movf	_volt+3,w
  1252  0003' 0083'              	movwf	___fltol@f1+3
  1253  0004' 0806'              	movf	_volt+2,w
  1254  0005' 0082'              	movwf	___fltol@f1+2
  1255  0006' 0805'              	movf	_volt+1,w
  1256  0007' 0081'              	movwf	___fltol@f1+1
  1257  0008' 0804'              	movf	_volt,w
  1258  0009' 0080'              	movwf	___fltol@f1
  1259  000A' 120A' 118A' 2000' 120A' 118A' 	fcall	___fltol
  1260  000F' 0800'              	movf	?___fltol,w
  1261  0010' 1283               	bcf	3,5	;RP0=0, select bank0
  1262  0011' 1303               	bcf	3,6	;RP1=0, select bank0
  1263  0012' 0099               	movwf	25	;volatile
  1264  0013'                    l201:	
  1265                           ;Laboratorio_03.c: 143:     }
  1266                           
  1267                           
  1268                           ;Laboratorio_03.c: 141:     while (TXSTAbits.TRMT == 1) {
  1269  0013' 1683               	bsf	3,5	;RP0=1, select bank1
  1270  0014' 1303               	bcf	3,6	;RP1=0, select bank1
  1271  0015' 0818               	movf	24,w	;volatile
  1272  0016'                    l203:
  1273  0016' 0008               	return
  1274  0017'                    __end_of_Mandar1:
  1275                           
  1276                           	psect	text7
  1277  0000'                    __ptext7:	
  1278 ;; *************** function ___fltol *****************
  1279 ;; Defined at:
  1280 ;;		line 43 in file "C:\Program Files\Microchip\xc8\v2.31\pic\sources\c90\common\fltol.c"
  1281 ;; Parameters:    Size  Location     Type
  1282 ;;  f1              4    0[COMMON] void 
  1283 ;; Auto vars:     Size  Location     Type
  1284 ;;  exp1            1   10[COMMON] unsigned char 
  1285 ;;  sign1           1    9[COMMON] unsigned char 
  1286 ;; Return value:  Size  Location     Type
  1287 ;;                  4    0[COMMON] long 
  1288 ;; Registers used:
  1289 ;;		wreg, status,2, status,0
  1290 ;; Tracked objects:
  1291 ;;		On entry : 0/0
  1292 ;;		On exit  : 0/0
  1293 ;;		Unchanged: 0/0
  1294 ;; Data sizes:     COMMON   BANK0   BANK1   BANK3   BANK2
  1295 ;;      Params:         4       0       0       0       0
  1296 ;;      Locals:         2       0       0       0       0
  1297 ;;      Temps:          5       0       0       0       0
  1298 ;;      Totals:        11       0       0       0       0
  1299 ;;Total ram usage:       11 bytes
  1300 ;; Hardware stack levels used:    1
  1301 ;; This function calls:
  1302 ;;		Nothing
  1303 ;; This function is called by:
  1304 ;;		_Mandar1
  1305 ;;		_Mandar2
  1306 ;; This function uses a non-reentrant model
  1307 ;;
  1308                           
  1309                           
  1310                           ;psect for function ___fltol
  1311  0000'                    ___fltol:
  1312  0000'                    l1473:	
  1313                           ;incstack = 0
  1314                           ; Regs used in ___fltol: [wreg+status,2+status,0]
  1315                           
  1316  0000' 1003               	clrc
  1317  0001' 0D02'              	rlf	___fltol@f1+2,w
  1318  0002' 0D03'              	rlf	___fltol@f1+3,w
  1319  0003' 0084'              	movwf	??___fltol
  1320  0004' 0804'              	movf	??___fltol,w
  1321  0005' 008A'              	movwf	___fltol@exp1
  1322  0006' 080A'              	movf	___fltol@exp1,w
  1323  0007' 1D03               	btfss	3,2
  1324  0008' 2800'              	goto	u1201
  1325  0009' 2800'              	goto	u1200
  1326  000A'                    u1201:
  1327  000A' 2800'              	goto	l1479
  1328  000B'                    u1200:
  1329  000B'                    l1475:
  1330  000B' 3000               	movlw	0
  1331  000C' 0083'              	movwf	?___fltol+3
  1332  000D' 3000               	movlw	0
  1333  000E' 0082'              	movwf	?___fltol+2
  1334  000F' 3000               	movlw	0
  1335  0010' 0081'              	movwf	?___fltol+1
  1336  0011' 3000               	movlw	0
  1337  0012' 0080'              	movwf	?___fltol
  1338  0013' 2800'              	goto	l488
  1339  0014'                    l1479:
  1340  0014' 0800'              	movf	___fltol@f1,w
  1341  0015' 0084'              	movwf	??___fltol
  1342  0016' 0801'              	movf	___fltol@f1+1,w
  1343  0017' 0085'              	movwf	??___fltol+1
  1344  0018' 0802'              	movf	___fltol@f1+2,w
  1345  0019' 0086'              	movwf	??___fltol+2
  1346  001A' 0803'              	movf	___fltol@f1+3,w
  1347  001B' 0087'              	movwf	??___fltol+3
  1348  001C' 301F               	movlw	31
  1349  001D'                    u1215:
  1350  001D' 1003               	clrc
  1351  001E' 0C87'              	rrf	??___fltol+3,f
  1352  001F' 0C86'              	rrf	??___fltol+2,f
  1353  0020' 0C85'              	rrf	??___fltol+1,f
  1354  0021' 0C84'              	rrf	??___fltol,f
  1355  0022'                    u1210:
  1356  0022' 3EFF               	addlw	-1
  1357  0023' 1D03               	skipz
  1358  0024' 2800'              	goto	u1215
  1359  0025' 0804'              	movf	??___fltol,w
  1360  0026' 0088'              	movwf	??___fltol+4
  1361  0027' 0808'              	movf	??___fltol+4,w
  1362  0028' 0089'              	movwf	___fltol@sign1
  1363  0029'                    l1481:
  1364  0029' 1782'              	bsf	___fltol@f1+2,7
  1365  002A'                    l1483:
  1366  002A' 30FF               	movlw	255
  1367  002B' 0580'              	andwf	___fltol@f1,f
  1368  002C' 30FF               	movlw	255
  1369  002D' 0581'              	andwf	___fltol@f1+1,f
  1370  002E' 30FF               	movlw	255
  1371  002F' 0582'              	andwf	___fltol@f1+2,f
  1372  0030' 3000               	movlw	0
  1373  0031' 0583'              	andwf	___fltol@f1+3,f
  1374  0032'                    l1485:
  1375  0032' 3096               	movlw	150
  1376  0033' 028A'              	subwf	___fltol@exp1,f
  1377  0034'                    l1487:
  1378  0034' 1F8A'              	btfss	___fltol@exp1,7
  1379  0035' 2800'              	goto	u1221
  1380  0036' 2800'              	goto	u1220
  1381  0037'                    u1221:
  1382  0037' 2800'              	goto	l1497
  1383  0038'                    u1220:
  1384  0038'                    l1489:
  1385  0038' 080A'              	movf	___fltol@exp1,w
  1386  0039' 3A80               	xorlw	128
  1387  003A' 3E97               	addlw	151
  1388  003B' 1803               	skipnc
  1389  003C' 2800'              	goto	u1231
  1390  003D' 2800'              	goto	u1230
  1391  003E'                    u1231:
  1392  003E' 2800'              	goto	l1495
  1393  003F'                    u1230:
  1394  003F' 2800'              	goto	l1475
  1395  0040'                    l1495:
  1396  0040' 3001               	movlw	1
  1397  0041'                    u1245:
  1398  0041' 1003               	clrc
  1399  0042' 0C83'              	rrf	___fltol@f1+3,f
  1400  0043' 0C82'              	rrf	___fltol@f1+2,f
  1401  0044' 0C81'              	rrf	___fltol@f1+1,f
  1402  0045' 0C80'              	rrf	___fltol@f1,f
  1403  0046' 3EFF               	addlw	-1
  1404  0047' 1D03               	skipz
  1405  0048' 2800'              	goto	u1245
  1406  0049' 3001               	movlw	1
  1407  004A' 0084'              	movwf	??___fltol
  1408  004B' 0804'              	movf	??___fltol,w
  1409  004C' 078A'              	addwf	___fltol@exp1,f
  1410  004D' 1D03               	btfss	3,2
  1411  004E' 2800'              	goto	u1251
  1412  004F' 2800'              	goto	u1250
  1413  0050'                    u1251:
  1414  0050' 2800'              	goto	l1495
  1415  0051'                    u1250:
  1416  0051' 2800'              	goto	l1505
  1417  0052'                    l1497:
  1418  0052' 3020               	movlw	32
  1419  0053' 020A'              	subwf	___fltol@exp1,w
  1420  0054' 1C03               	skipc
  1421  0055' 2800'              	goto	u1261
  1422  0056' 2800'              	goto	u1260
  1423  0057'                    u1261:
  1424  0057' 2800'              	goto	l495
  1425  0058'                    u1260:
  1426  0058' 2800'              	goto	l1475
  1427  0059'                    l1503:
  1428  0059' 3001               	movlw	1
  1429  005A' 0084'              	movwf	??___fltol
  1430  005B'                    u1275:
  1431  005B' 1003               	clrc
  1432  005C' 0D80'              	rlf	___fltol@f1,f
  1433  005D' 0D81'              	rlf	___fltol@f1+1,f
  1434  005E' 0D82'              	rlf	___fltol@f1+2,f
  1435  005F' 0D83'              	rlf	___fltol@f1+3,f
  1436  0060' 0B84'              	decfsz	??___fltol,f
  1437  0061' 2800'              	goto	u1275
  1438  0062' 3001               	movlw	1
  1439  0063' 028A'              	subwf	___fltol@exp1,f
  1440  0064'                    l495:
  1441  0064' 080A'              	movf	___fltol@exp1,w
  1442  0065' 1D03               	btfss	3,2
  1443  0066' 2800'              	goto	u1281
  1444  0067' 2800'              	goto	u1280
  1445  0068'                    u1281:
  1446  0068' 2800'              	goto	l1503
  1447  0069'                    u1280:
  1448  0069'                    l1505:
  1449  0069' 0809'              	movf	___fltol@sign1,w
  1450  006A' 1903               	btfsc	3,2
  1451  006B' 2800'              	goto	u1291
  1452  006C' 2800'              	goto	u1290
  1453  006D'                    u1291:
  1454  006D' 2800'              	goto	l498
  1455  006E'                    u1290:
  1456  006E'                    l1507:
  1457  006E' 0980'              	comf	___fltol@f1,f
  1458  006F' 0981'              	comf	___fltol@f1+1,f
  1459  0070' 0982'              	comf	___fltol@f1+2,f
  1460  0071' 0983'              	comf	___fltol@f1+3,f
  1461  0072' 0A80'              	incf	___fltol@f1,f
  1462  0073' 1903               	skipnz
  1463  0074' 0A81'              	incf	___fltol@f1+1,f
  1464  0075' 1903               	skipnz
  1465  0076' 0A82'              	incf	___fltol@f1+2,f
  1466  0077' 1903               	skipnz
  1467  0078' 0A83'              	incf	___fltol@f1+3,f
  1468  0079'                    l498:
  1469  0079'                    l488:
  1470  0079' 0008               	return
  1471  007A'                    __end_of___fltol:
  1472                           
  1473                           	psect	text8
  1474  0000'                    __ptext8:	
  1475 ;; *************** function _Lcd_Write_String *****************
  1476 ;; Defined at:
  1477 ;;		line 165 in file "./LIB_LCD.h"
  1478 ;; Parameters:    Size  Location     Type
  1479 ;;  a               2    3[COMMON] PTR unsigned char 
  1480 ;;		 -> data(16), STR_1(18), 
  1481 ;; Auto vars:     Size  Location     Type
  1482 ;;  i               2    8[COMMON] int 
  1483 ;; Return value:  Size  Location     Type
  1484 ;;                  1    wreg      void 
  1485 ;; Registers used:
  1486 ;;		wreg, fsr0l, fsr0h, status,2, status,0, btemp+1, pclath, cstack
  1487 ;; Tracked objects:
  1488 ;;		On entry : 0/0
  1489 ;;		On exit  : 0/0
  1490 ;;		Unchanged: 0/0
  1491 ;; Data sizes:     COMMON   BANK0   BANK1   BANK3   BANK2
  1492 ;;      Params:         2       0       0       0       0
  1493 ;;      Locals:         2       0       0       0       0
  1494 ;;      Temps:          3       0       0       0       0
  1495 ;;      Totals:         7       0       0       0       0
  1496 ;;Total ram usage:        7 bytes
  1497 ;; Hardware stack levels used:    1
  1498 ;; Hardware stack levels required when called:    2
  1499 ;; This function calls:
  1500 ;;		_Lcd_Write_Char
  1501 ;; This function is called by:
  1502 ;;		_main
  1503 ;; This function uses a non-reentrant model
  1504 ;;
  1505                           
  1506                           
  1507                           ;psect for function _Lcd_Write_String
  1508  0000'                    _Lcd_Write_String:
  1509  0000'                    l1871:	
  1510                           ;incstack = 0
  1511                           ; Regs used in _Lcd_Write_String: [wreg-fsr0h+status,2+status,0+btemp+1+pclath+cstack]
  1512                           
  1513                           
  1514                           ;./LIB_LCD.h: 166:     int i;;./LIB_LCD.h: 167:     for (i = 0; a[i] != '\0'; i++)
  1515  0000' 0188'              	clrf	Lcd_Write_String@i
  1516  0001' 0189'              	clrf	Lcd_Write_String@i+1
  1517  0002' 2800'              	goto	l1877
  1518  0003'                    l1873:
  1519                           
  1520                           ;./LIB_LCD.h: 168:         Lcd_Write_Char(a[i]);
  1521  0003' 0808'              	movf	Lcd_Write_String@i,w
  1522  0004' 0703'              	addwf	Lcd_Write_String@a,w
  1523  0005' 0086'              	movwf	??_Lcd_Write_String+1
  1524  0006' 0804'              	movf	Lcd_Write_String@a+1,w
  1525  0007' 0085'              	movwf	??_Lcd_Write_String
  1526  0008' 1803               	skipnc
  1527  0009' 0A85'              	incf	??_Lcd_Write_String,f
  1528  000A' 1F88'              	btfss	Lcd_Write_String@i,7
  1529  000B' 2800'              	goto	u2120
  1530  000C' 0385'              	decf	??_Lcd_Write_String,f
  1531  000D'                    u2120:
  1532  000D' 0805'              	movf	??_Lcd_Write_String,w
  1533  000E' 0087'              	movwf	??_Lcd_Write_String+2
  1534  000F' 0807'              	movf	??_Lcd_Write_String+2,w
  1535  0010' 1283               	bcf	3,5	;RP0=0, select bank0
  1536  0011' 1303               	bcf	3,6	;RP1=0, select bank0
  1537  0012' 00FF               	movwf	btemp+1
  1538  0013' 0806'              	movf	??_Lcd_Write_String+1,w
  1539  0014' 0084               	movwf	4
  1540  0015' 120A' 118A' 2000' 120A' 118A' 	fcall	stringtab
  1541  001A' 120A' 118A' 2000' 120A' 118A' 	fcall	_Lcd_Write_Char
  1542  001F'                    l1875:
  1543  001F' 3001               	movlw	1
  1544  0020' 0788'              	addwf	Lcd_Write_String@i,f
  1545  0021' 1803               	skipnc
  1546  0022' 0A89'              	incf	Lcd_Write_String@i+1,f
  1547  0023' 3000               	movlw	0
  1548  0024' 0789'              	addwf	Lcd_Write_String@i+1,f
  1549  0025'                    l1877:
  1550  0025' 0808'              	movf	Lcd_Write_String@i,w
  1551  0026' 0703'              	addwf	Lcd_Write_String@a,w
  1552  0027' 0086'              	movwf	??_Lcd_Write_String+1
  1553  0028' 0804'              	movf	Lcd_Write_String@a+1,w
  1554  0029' 0085'              	movwf	??_Lcd_Write_String
  1555  002A' 1803               	skipnc
  1556  002B' 0A85'              	incf	??_Lcd_Write_String,f
  1557  002C' 1F88'              	btfss	Lcd_Write_String@i,7
  1558  002D' 2800'              	goto	u2130
  1559  002E' 0385'              	decf	??_Lcd_Write_String,f
  1560  002F'                    u2130:
  1561  002F' 0805'              	movf	??_Lcd_Write_String,w
  1562  0030' 0087'              	movwf	??_Lcd_Write_String+2
  1563  0031' 0807'              	movf	??_Lcd_Write_String+2,w
  1564  0032' 1283               	bcf	3,5	;RP0=0, select bank0
  1565  0033' 1303               	bcf	3,6	;RP1=0, select bank0
  1566  0034' 00FF               	movwf	btemp+1
  1567  0035' 0806'              	movf	??_Lcd_Write_String+1,w
  1568  0036' 0084               	movwf	4
  1569  0037' 120A' 118A' 2000' 120A' 118A' 	fcall	stringtab
  1570  003C' 3A00               	xorlw	0
  1571  003D' 1D03               	skipz
  1572  003E' 2800'              	goto	u2141
  1573  003F' 2800'              	goto	u2140
  1574  0040'                    u2141:
  1575  0040' 2800'              	goto	l1873
  1576  0041'                    u2140:
  1577  0041'                    l129:
  1578  0041' 0008               	return
  1579  0042'                    __end_of_Lcd_Write_String:
  1580                           
  1581                           	psect	text9
  1582  0000'                    __ptext9:	
  1583 ;; *************** function _Lcd_Write_Char *****************
  1584 ;; Defined at:
  1585 ;;		line 156 in file "./LIB_LCD.h"
  1586 ;; Parameters:    Size  Location     Type
  1587 ;;  a               1    wreg     unsigned char 
  1588 ;; Auto vars:     Size  Location     Type
  1589 ;;  a               1    2[COMMON] unsigned char 
  1590 ;; Return value:  Size  Location     Type
  1591 ;;                  1    wreg      void 
  1592 ;; Registers used:
  1593 ;;		wreg, status,2, status,0, pclath, cstack
  1594 ;; Tracked objects:
  1595 ;;		On entry : 0/0
  1596 ;;		On exit  : 0/0
  1597 ;;		Unchanged: 0/0
  1598 ;; Data sizes:     COMMON   BANK0   BANK1   BANK3   BANK2
  1599 ;;      Params:         0       0       0       0       0
  1600 ;;      Locals:         1       0       0       0       0
  1601 ;;      Temps:          1       0       0       0       0
  1602 ;;      Totals:         2       0       0       0       0
  1603 ;;Total ram usage:        2 bytes
  1604 ;; Hardware stack levels used:    1
  1605 ;; Hardware stack levels required when called:    1
  1606 ;; This function calls:
  1607 ;;		_Lcd_Port
  1608 ;; This function is called by:
  1609 ;;		_Lcd_Write_String
  1610 ;; This function uses a non-reentrant model
  1611 ;;
  1612                           
  1613                           
  1614                           ;psect for function _Lcd_Write_Char
  1615  0000'                    _Lcd_Write_Char:
  1616                           
  1617                           ;incstack = 0
  1618                           ; Regs used in _Lcd_Write_Char: [wreg+status,2+status,0+pclath+cstack]
  1619                           ;Lcd_Write_Char@a stored from wreg
  1620  0000' 0082'              	movwf	Lcd_Write_Char@a
  1621  0001'                    l1453:
  1622                           
  1623                           ;./LIB_LCD.h: 158:     RE0 = 1;
  1624  0001' 1283               	bcf	3,5	;RP0=0, select bank0
  1625  0002' 1303               	bcf	3,6	;RP1=0, select bank0
  1626  0003' 1409               	bsf	9,0	;volatile
  1627  0004'                    l1455:
  1628                           
  1629                           ;./LIB_LCD.h: 159:     Lcd_Port(a);
  1630  0004' 0802'              	movf	Lcd_Write_Char@a,w
  1631  0005' 120A' 118A' 2000' 120A' 118A' 	fcall	_Lcd_Port
  1632  000A'                    l1457:
  1633                           
  1634                           ;./LIB_LCD.h: 160:     RE1 = 1;
  1635  000A' 1283               	bcf	3,5	;RP0=0, select bank0
  1636  000B' 1303               	bcf	3,6	;RP1=0, select bank0
  1637  000C' 1489               	bsf	9,1	;volatile
  1638  000D'                    l1459:
  1639                           
  1640                           ;./LIB_LCD.h: 161:     _delay((unsigned long)((40)*(8000000/4000000.0)));
  1641  000D' 301A               	movlw	26
  1642  000E' 0081'              	movwf	??_Lcd_Write_Char
  1643  000F'                    u2197:
  1644  000F' 0B81'              	decfsz	??_Lcd_Write_Char,f
  1645  0010' 2800'              	goto	u2197
  1646  0011' 0000               	nop
  1647  0012'                    l1461:
  1648                           
  1649                           ;./LIB_LCD.h: 162:     RE1 = 0;
  1650  0012' 1283               	bcf	3,5	;RP0=0, select bank0
  1651  0013' 1303               	bcf	3,6	;RP1=0, select bank0
  1652  0014' 1089               	bcf	9,1	;volatile
  1653  0015'                    l123:
  1654  0015' 0008               	return
  1655  0016'                    __end_of_Lcd_Write_Char:
  1656                           
  1657                           	psect	text10
  1658  0000'                    __ptext10:	
  1659 ;; *************** function _Lcd_Set_Cursor *****************
  1660 ;; Defined at:
  1661 ;;		line 115 in file "./LIB_LCD.h"
  1662 ;; Parameters:    Size  Location     Type
  1663 ;;  a               1    wreg     unsigned char 
  1664 ;;  b               1    4[COMMON] unsigned char 
  1665 ;; Auto vars:     Size  Location     Type
  1666 ;;  a               1    6[COMMON] unsigned char 
  1667 ;;  temp            1    7[COMMON] unsigned char 
  1668 ;;  z               1    0        unsigned char 
  1669 ;;  y               1    0        unsigned char 
  1670 ;; Return value:  Size  Location     Type
  1671 ;;                  1    wreg      void 
  1672 ;; Registers used:
  1673 ;;		wreg, status,2, status,0, pclath, cstack
  1674 ;; Tracked objects:
  1675 ;;		On entry : 0/0
  1676 ;;		On exit  : 0/0
  1677 ;;		Unchanged: 0/0
  1678 ;; Data sizes:     COMMON   BANK0   BANK1   BANK3   BANK2
  1679 ;;      Params:         1       0       0       0       0
  1680 ;;      Locals:         2       0       0       0       0
  1681 ;;      Temps:          1       0       0       0       0
  1682 ;;      Totals:         4       0       0       0       0
  1683 ;;Total ram usage:        4 bytes
  1684 ;; Hardware stack levels used:    1
  1685 ;; Hardware stack levels required when called:    2
  1686 ;; This function calls:
  1687 ;;		_Lcd_Cmd
  1688 ;; This function is called by:
  1689 ;;		_main
  1690 ;; This function uses a non-reentrant model
  1691 ;;
  1692                           
  1693                           
  1694                           ;psect for function _Lcd_Set_Cursor
  1695  0000'                    _Lcd_Set_Cursor:
  1696                           
  1697                           ;incstack = 0
  1698                           ; Regs used in _Lcd_Set_Cursor: [wreg+status,2+status,0+pclath+cstack]
  1699                           ;Lcd_Set_Cursor@a stored from wreg
  1700  0000' 0086'              	movwf	Lcd_Set_Cursor@a
  1701  0001'                    l1835:
  1702                           
  1703                           ;./LIB_LCD.h: 116:     char temp, y, z;;./LIB_LCD.h: 117:     if (a == 1) {
  1704  0001' 0306'              	decf	Lcd_Set_Cursor@a,w
  1705  0002' 1D03               	btfss	3,2
  1706  0003' 2800'              	goto	u2101
  1707  0004' 2800'              	goto	u2100
  1708  0005'                    u2101:
  1709  0005' 2800'              	goto	l1841
  1710  0006'                    u2100:
  1711  0006'                    l1837:
  1712                           
  1713                           ;./LIB_LCD.h: 118:         temp = 0x80 + b - 1;
  1714  0006' 0804'              	movf	Lcd_Set_Cursor@b,w
  1715  0007' 3E7F               	addlw	127
  1716  0008' 0085'              	movwf	??_Lcd_Set_Cursor
  1717  0009' 0805'              	movf	??_Lcd_Set_Cursor,w
  1718  000A' 0087'              	movwf	Lcd_Set_Cursor@temp
  1719  000B'                    l1839:
  1720                           
  1721                           ;./LIB_LCD.h: 122:         Lcd_Cmd(temp);
  1722  000B' 0807'              	movf	Lcd_Set_Cursor@temp,w
  1723  000C' 120A' 118A' 2000' 120A' 118A' 	fcall	_Lcd_Cmd
  1724                           
  1725                           ;./LIB_LCD.h: 124:     } else if (a == 2) {
  1726  0011' 2800'              	goto	l117
  1727  0012'                    l1841:
  1728  0012' 3002               	movlw	2
  1729  0013' 0606'              	xorwf	Lcd_Set_Cursor@a,w
  1730  0014' 1D03               	btfss	3,2
  1731  0015' 2800'              	goto	u2111
  1732  0016' 2800'              	goto	u2110
  1733  0017'                    u2111:
  1734  0017' 2800'              	goto	l117
  1735  0018'                    u2110:
  1736  0018'                    l1843:
  1737                           
  1738                           ;./LIB_LCD.h: 125:         temp = 0xC0 + b - 1;
  1739  0018' 0804'              	movf	Lcd_Set_Cursor@b,w
  1740  0019' 3EBF               	addlw	191
  1741  001A' 0085'              	movwf	??_Lcd_Set_Cursor
  1742  001B' 0805'              	movf	??_Lcd_Set_Cursor,w
  1743  001C' 0087'              	movwf	Lcd_Set_Cursor@temp
  1744  001D'                    l1845:
  1745                           
  1746                           ;./LIB_LCD.h: 129:         Lcd_Cmd(temp);
  1747  001D' 0807'              	movf	Lcd_Set_Cursor@temp,w
  1748  001E' 120A' 118A' 2000' 120A' 118A' 	fcall	_Lcd_Cmd
  1749  0023'                    l117:
  1750  0023' 0008               	return
  1751  0024'                    __end_of_Lcd_Set_Cursor:
  1752                           
  1753                           	psect	text11
  1754  0000'                    __ptext11:	
  1755 ;; *************** function _Lcd_Init *****************
  1756 ;; Defined at:
  1757 ;;		line 134 in file "./LIB_LCD.h"
  1758 ;; Parameters:    Size  Location     Type
  1759 ;;		None
  1760 ;; Auto vars:     Size  Location     Type
  1761 ;;		None
  1762 ;; Return value:  Size  Location     Type
  1763 ;;                  1    wreg      void 
  1764 ;; Registers used:
  1765 ;;		wreg, status,2, status,0, pclath, cstack
  1766 ;; Tracked objects:
  1767 ;;		On entry : 0/0
  1768 ;;		On exit  : 0/0
  1769 ;;		Unchanged: 0/0
  1770 ;; Data sizes:     COMMON   BANK0   BANK1   BANK3   BANK2
  1771 ;;      Params:         0       0       0       0       0
  1772 ;;      Locals:         0       0       0       0       0
  1773 ;;      Temps:          2       0       0       0       0
  1774 ;;      Totals:         2       0       0       0       0
  1775 ;;Total ram usage:        2 bytes
  1776 ;; Hardware stack levels used:    1
  1777 ;; Hardware stack levels required when called:    2
  1778 ;; This function calls:
  1779 ;;		_Lcd_Cmd
  1780 ;; This function is called by:
  1781 ;;		_main
  1782 ;; This function uses a non-reentrant model
  1783 ;;
  1784                           
  1785                           
  1786                           ;psect for function _Lcd_Init
  1787  0000'                    _Lcd_Init:
  1788  0000'                    l1847:	
  1789                           ;incstack = 0
  1790                           ; Regs used in _Lcd_Init: [wreg+status,2+status,0+pclath+cstack]
  1791                           
  1792                           
  1793                           ;./LIB_LCD.h: 135:     _delay((unsigned long)((20)*(8000000/4000.0)));
  1794  0000' 3034               	movlw	52
  1795  0001' 0085'              	movwf	??_Lcd_Init+1
  1796  0002' 30F1               	movlw	241
  1797  0003' 0084'              	movwf	??_Lcd_Init
  1798  0004'                    u2207:
  1799  0004' 0B84'              	decfsz	??_Lcd_Init,f
  1800  0005' 2800'              	goto	u2207
  1801  0006' 0B85'              	decfsz	??_Lcd_Init+1,f
  1802  0007' 2800'              	goto	u2207
  1803  0008' 2800'              	nop2
  1804  0009'                    l1849:
  1805                           
  1806                           ;./LIB_LCD.h: 136:     Lcd_Cmd (0x30);
  1807  0009' 3030               	movlw	48
  1808  000A' 120A' 118A' 2000' 120A' 118A' 	fcall	_Lcd_Cmd
  1809  000F'                    l1851:
  1810                           
  1811                           ;./LIB_LCD.h: 137:     _delay((unsigned long)((5)*(8000000/4000.0)));
  1812  000F' 300D               	movlw	13
  1813  0010' 0085'              	movwf	??_Lcd_Init+1
  1814  0011' 30FB               	movlw	251
  1815  0012' 0084'              	movwf	??_Lcd_Init
  1816  0013'                    u2217:
  1817  0013' 0B84'              	decfsz	??_Lcd_Init,f
  1818  0014' 2800'              	goto	u2217
  1819  0015' 0B85'              	decfsz	??_Lcd_Init+1,f
  1820  0016' 2800'              	goto	u2217
  1821  0017' 2800'              	nop2
  1822                           
  1823                           ;./LIB_LCD.h: 138:     Lcd_Cmd (0x30);
  1824  0018' 3030               	movlw	48
  1825  0019' 120A' 118A' 2000' 120A' 118A' 	fcall	_Lcd_Cmd
  1826  001E'                    l1853:
  1827                           
  1828                           ;./LIB_LCD.h: 139:     _delay((unsigned long)((100)*(8000000/4000000.0)));
  1829  001E' 3042               	movlw	66
  1830  001F' 0084'              	movwf	??_Lcd_Init
  1831  0020'                    u2227:
  1832  0020' 0B84'              	decfsz	??_Lcd_Init,f
  1833  0021' 2800'              	goto	u2227
  1834  0022' 0000               	nop
  1835  0023'                    l1855:
  1836                           
  1837                           ;./LIB_LCD.h: 140:     Lcd_Cmd (0x30);
  1838  0023' 3030               	movlw	48
  1839  0024' 120A' 118A' 2000' 120A' 118A' 	fcall	_Lcd_Cmd
  1840                           
  1841                           ;./LIB_LCD.h: 141:     _delay((unsigned long)((100)*(8000000/4000000.0)));
  1842  0029' 3042               	movlw	66
  1843  002A' 0084'              	movwf	??_Lcd_Init
  1844  002B'                    u2237:
  1845  002B' 0B84'              	decfsz	??_Lcd_Init,f
  1846  002C' 2800'              	goto	u2237
  1847  002D' 0000               	nop
  1848  002E'                    l1857:
  1849                           
  1850                           ;./LIB_LCD.h: 142:     Lcd_Cmd (0x38);
  1851  002E' 3038               	movlw	56
  1852  002F' 120A' 118A' 2000' 120A' 118A' 	fcall	_Lcd_Cmd
  1853  0034'                    l1859:
  1854                           
  1855                           ;./LIB_LCD.h: 143:     _delay((unsigned long)((60)*(8000000/4000000.0)));
  1856  0034' 3027               	movlw	39
  1857  0035' 0084'              	movwf	??_Lcd_Init
  1858  0036'                    u2247:
  1859  0036' 0B84'              	decfsz	??_Lcd_Init,f
  1860  0037' 2800'              	goto	u2247
  1861  0038' 2800'              	nop2
  1862                           
  1863                           ;./LIB_LCD.h: 144:     Lcd_Cmd (0x08);
  1864  0039' 3008               	movlw	8
  1865  003A' 120A' 118A' 2000' 120A' 118A' 	fcall	_Lcd_Cmd
  1866  003F'                    l1861:
  1867                           
  1868                           ;./LIB_LCD.h: 145:     _delay((unsigned long)((60)*(8000000/4000000.0)));
  1869  003F' 3027               	movlw	39
  1870  0040' 0084'              	movwf	??_Lcd_Init
  1871  0041'                    u2257:
  1872  0041' 0B84'              	decfsz	??_Lcd_Init,f
  1873  0042' 2800'              	goto	u2257
  1874  0043' 2800'              	nop2
  1875  0044'                    l1863:
  1876                           
  1877                           ;./LIB_LCD.h: 146:     Lcd_Cmd (0x01);
  1878  0044' 3001               	movlw	1
  1879  0045' 120A' 118A' 2000' 120A' 118A' 	fcall	_Lcd_Cmd
  1880                           
  1881                           ;./LIB_LCD.h: 147:     _delay((unsigned long)((5)*(8000000/4000.0)));
  1882  004A' 300D               	movlw	13
  1883  004B' 0085'              	movwf	??_Lcd_Init+1
  1884  004C' 30FB               	movlw	251
  1885  004D' 0084'              	movwf	??_Lcd_Init
  1886  004E'                    u2267:
  1887  004E' 0B84'              	decfsz	??_Lcd_Init,f
  1888  004F' 2800'              	goto	u2267
  1889  0050' 0B85'              	decfsz	??_Lcd_Init+1,f
  1890  0051' 2800'              	goto	u2267
  1891  0052' 2800'              	nop2
  1892  0053'                    l1865:
  1893                           
  1894                           ;./LIB_LCD.h: 148:     Lcd_Cmd (0x06);
  1895  0053' 3006               	movlw	6
  1896  0054' 120A' 118A' 2000' 120A' 118A' 	fcall	_Lcd_Cmd
  1897  0059'                    l1867:
  1898                           
  1899                           ;./LIB_LCD.h: 149:     _delay((unsigned long)((60)*(8000000/4000000.0)));
  1900  0059' 3027               	movlw	39
  1901  005A' 0084'              	movwf	??_Lcd_Init
  1902  005B'                    u2277:
  1903  005B' 0B84'              	decfsz	??_Lcd_Init,f
  1904  005C' 2800'              	goto	u2277
  1905  005D' 2800'              	nop2
  1906                           
  1907                           ;./LIB_LCD.h: 150:     Lcd_Cmd (0x0C);
  1908  005E' 300C               	movlw	12
  1909  005F' 120A' 118A' 2000' 120A' 118A' 	fcall	_Lcd_Cmd
  1910  0064'                    l1869:
  1911                           
  1912                           ;./LIB_LCD.h: 151:     _delay((unsigned long)((60)*(8000000/4000000.0)));
  1913  0064' 3027               	movlw	39
  1914  0065' 0084'              	movwf	??_Lcd_Init
  1915  0066'                    u2287:
  1916  0066' 0B84'              	decfsz	??_Lcd_Init,f
  1917  0067' 2800'              	goto	u2287
  1918  0068' 2800'              	nop2
  1919  0069'                    l120:
  1920  0069' 0008               	return
  1921  006A'                    __end_of_Lcd_Init:
  1922                           
  1923                           	psect	text12
  1924  0000'                    __ptext12:	
  1925 ;; *************** function _Lcd_Cmd *****************
  1926 ;; Defined at:
  1927 ;;		line 102 in file "./LIB_LCD.h"
  1928 ;; Parameters:    Size  Location     Type
  1929 ;;  a               1    wreg     unsigned char 
  1930 ;; Auto vars:     Size  Location     Type
  1931 ;;  a               1    3[COMMON] unsigned char 
  1932 ;; Return value:  Size  Location     Type
  1933 ;;                  1    wreg      void 
  1934 ;; Registers used:
  1935 ;;		wreg, status,2, status,0, pclath, cstack
  1936 ;; Tracked objects:
  1937 ;;		On entry : 0/0
  1938 ;;		On exit  : 0/0
  1939 ;;		Unchanged: 0/0
  1940 ;; Data sizes:     COMMON   BANK0   BANK1   BANK3   BANK2
  1941 ;;      Params:         0       0       0       0       0
  1942 ;;      Locals:         1       0       0       0       0
  1943 ;;      Temps:          2       0       0       0       0
  1944 ;;      Totals:         3       0       0       0       0
  1945 ;;Total ram usage:        3 bytes
  1946 ;; Hardware stack levels used:    1
  1947 ;; Hardware stack levels required when called:    1
  1948 ;; This function calls:
  1949 ;;		_Lcd_Port
  1950 ;; This function is called by:
  1951 ;;		_Lcd_Set_Cursor
  1952 ;;		_Lcd_Init
  1953 ;;		_Lcd_Clear
  1954 ;;		_Lcd_Shift_Right
  1955 ;;		_Lcd_Shift_Left
  1956 ;; This function uses a non-reentrant model
  1957 ;;
  1958                           
  1959                           
  1960                           ;psect for function _Lcd_Cmd
  1961  0000'                    _Lcd_Cmd:
  1962                           
  1963                           ;incstack = 0
  1964                           ; Regs used in _Lcd_Cmd: [wreg+status,2+status,0+pclath+cstack]
  1965                           ;Lcd_Cmd@a stored from wreg
  1966  0000' 0083'              	movwf	Lcd_Cmd@a
  1967  0001'                    l1443:
  1968                           
  1969                           ;./LIB_LCD.h: 103:     RE0 = 0;
  1970  0001' 1283               	bcf	3,5	;RP0=0, select bank0
  1971  0002' 1303               	bcf	3,6	;RP1=0, select bank0
  1972  0003' 1009               	bcf	9,0	;volatile
  1973  0004'                    l1445:
  1974                           
  1975                           ;./LIB_LCD.h: 104:     Lcd_Port(a);
  1976  0004' 0803'              	movf	Lcd_Cmd@a,w
  1977  0005' 120A' 118A' 2000' 120A' 118A' 	fcall	_Lcd_Port
  1978  000A'                    l1447:
  1979                           
  1980                           ;./LIB_LCD.h: 105:     RE1 = 1;
  1981  000A' 1283               	bcf	3,5	;RP0=0, select bank0
  1982  000B' 1303               	bcf	3,6	;RP1=0, select bank0
  1983  000C' 1489               	bsf	9,1	;volatile
  1984  000D'                    l1449:
  1985                           
  1986                           ;./LIB_LCD.h: 106:     _delay((unsigned long)((4)*(8000000/4000.0)));
  1987  000D' 300B               	movlw	11
  1988  000E' 0082'              	movwf	??_Lcd_Cmd+1
  1989  000F' 3062               	movlw	98
  1990  0010' 0081'              	movwf	??_Lcd_Cmd
  1991  0011'                    u2297:
  1992  0011' 0B81'              	decfsz	??_Lcd_Cmd,f
  1993  0012' 2800'              	goto	u2297
  1994  0013' 0B82'              	decfsz	??_Lcd_Cmd+1,f
  1995  0014' 2800'              	goto	u2297
  1996  0015' 0000               	nop
  1997  0016'                    l1451:
  1998                           
  1999                           ;./LIB_LCD.h: 107:     RE1 = 0;
  2000  0016' 1283               	bcf	3,5	;RP0=0, select bank0
  2001  0017' 1303               	bcf	3,6	;RP1=0, select bank0
  2002  0018' 1089               	bcf	9,1	;volatile
  2003  0019'                    l108:
  2004  0019' 0008               	return
  2005  001A'                    __end_of_Lcd_Cmd:
  2006                           
  2007                           	psect	text13
  2008  0000'                    __ptext13:	
  2009 ;; *************** function _Lcd_Port *****************
  2010 ;; Defined at:
  2011 ;;		line 59 in file "./LIB_LCD.h"
  2012 ;; Parameters:    Size  Location     Type
  2013 ;;  a               1    wreg     unsigned char 
  2014 ;; Auto vars:     Size  Location     Type
  2015 ;;  a               1    0[COMMON] unsigned char 
  2016 ;; Return value:  Size  Location     Type
  2017 ;;                  1    wreg      void 
  2018 ;; Registers used:
  2019 ;;		wreg
  2020 ;; Tracked objects:
  2021 ;;		On entry : 0/0
  2022 ;;		On exit  : 0/0
  2023 ;;		Unchanged: 0/0
  2024 ;; Data sizes:     COMMON   BANK0   BANK1   BANK3   BANK2
  2025 ;;      Params:         0       0       0       0       0
  2026 ;;      Locals:         1       0       0       0       0
  2027 ;;      Temps:          0       0       0       0       0
  2028 ;;      Totals:         1       0       0       0       0
  2029 ;;Total ram usage:        1 bytes
  2030 ;; Hardware stack levels used:    1
  2031 ;; This function calls:
  2032 ;;		Nothing
  2033 ;; This function is called by:
  2034 ;;		_Lcd_Cmd
  2035 ;;		_Lcd_Write_Char
  2036 ;; This function uses a non-reentrant model
  2037 ;;
  2038                           
  2039                           
  2040                           ;psect for function _Lcd_Port
  2041  0000'                    _Lcd_Port:
  2042                           
  2043                           ;incstack = 0
  2044                           ; Regs used in _Lcd_Port: [wreg]
  2045                           ;Lcd_Port@a stored from wreg
  2046  0000' 0080'              	movwf	Lcd_Port@a
  2047  0001'                    l1411:
  2048                           
  2049                           ;./LIB_LCD.h: 60:     if (a & 1)
  2050  0001' 1C00'              	btfss	Lcd_Port@a,0
  2051  0002' 2800'              	goto	u1091
  2052  0003' 2800'              	goto	u1090
  2053  0004'                    u1091:
  2054  0004' 2800'              	goto	l89
  2055  0005'                    u1090:
  2056  0005'                    l1413:
  2057                           
  2058                           ;./LIB_LCD.h: 61:         RD0 = 1;
  2059  0005' 1283               	bcf	3,5	;RP0=0, select bank0
  2060  0006' 1303               	bcf	3,6	;RP1=0, select bank0
  2061  0007' 1408               	bsf	8,0	;volatile
  2062  0008' 2800'              	goto	l90
  2063  0009'                    l89:	
  2064                           ;./LIB_LCD.h: 62:     else
  2065                           
  2066                           
  2067                           ;./LIB_LCD.h: 63:         RD0 = 0;
  2068  0009' 1283               	bcf	3,5	;RP0=0, select bank0
  2069  000A' 1303               	bcf	3,6	;RP1=0, select bank0
  2070  000B' 1008               	bcf	8,0	;volatile
  2071  000C'                    l90:
  2072                           
  2073                           ;./LIB_LCD.h: 65:     if (a & 2)
  2074  000C' 1C80'              	btfss	Lcd_Port@a,1
  2075  000D' 2800'              	goto	u1101
  2076  000E' 2800'              	goto	u1100
  2077  000F'                    u1101:
  2078  000F' 2800'              	goto	l91
  2079  0010'                    u1100:
  2080  0010'                    l1415:
  2081                           
  2082                           ;./LIB_LCD.h: 66:         RD1 = 1;
  2083  0010' 1488               	bsf	8,1	;volatile
  2084  0011' 2800'              	goto	l92
  2085  0012'                    l91:	
  2086                           ;./LIB_LCD.h: 67:     else
  2087                           
  2088                           
  2089                           ;./LIB_LCD.h: 68:         RD1 = 0;
  2090  0012' 1088               	bcf	8,1	;volatile
  2091  0013'                    l92:
  2092                           
  2093                           ;./LIB_LCD.h: 70:     if (a & 4)
  2094  0013' 1D00'              	btfss	Lcd_Port@a,2
  2095  0014' 2800'              	goto	u1111
  2096  0015' 2800'              	goto	u1110
  2097  0016'                    u1111:
  2098  0016' 2800'              	goto	l93
  2099  0017'                    u1110:
  2100  0017'                    l1417:
  2101                           
  2102                           ;./LIB_LCD.h: 71:         RD2 = 1;
  2103  0017' 1508               	bsf	8,2	;volatile
  2104  0018' 2800'              	goto	l94
  2105  0019'                    l93:	
  2106                           ;./LIB_LCD.h: 72:     else
  2107                           
  2108                           
  2109                           ;./LIB_LCD.h: 73:         RD2 = 0;
  2110  0019' 1108               	bcf	8,2	;volatile
  2111  001A'                    l94:
  2112                           
  2113                           ;./LIB_LCD.h: 75:     if (a & 8)
  2114  001A' 1D80'              	btfss	Lcd_Port@a,3
  2115  001B' 2800'              	goto	u1121
  2116  001C' 2800'              	goto	u1120
  2117  001D'                    u1121:
  2118  001D' 2800'              	goto	l95
  2119  001E'                    u1120:
  2120  001E'                    l1419:
  2121                           
  2122                           ;./LIB_LCD.h: 76:         RD3 = 1;
  2123  001E' 1588               	bsf	8,3	;volatile
  2124  001F' 2800'              	goto	l96
  2125  0020'                    l95:	
  2126                           ;./LIB_LCD.h: 77:     else
  2127                           
  2128                           
  2129                           ;./LIB_LCD.h: 78:         RD3 = 0;
  2130  0020' 1188               	bcf	8,3	;volatile
  2131  0021'                    l96:
  2132                           
  2133                           ;./LIB_LCD.h: 80:     if (a & 16)
  2134  0021' 1E00'              	btfss	Lcd_Port@a,4
  2135  0022' 2800'              	goto	u1131
  2136  0023' 2800'              	goto	u1130
  2137  0024'                    u1131:
  2138  0024' 2800'              	goto	l97
  2139  0025'                    u1130:
  2140  0025'                    l1421:
  2141                           
  2142                           ;./LIB_LCD.h: 81:         RD4 = 1;
  2143  0025' 1608               	bsf	8,4	;volatile
  2144  0026' 2800'              	goto	l98
  2145  0027'                    l97:	
  2146                           ;./LIB_LCD.h: 82:     else
  2147                           
  2148                           
  2149                           ;./LIB_LCD.h: 83:         RD4 = 0;
  2150  0027' 1208               	bcf	8,4	;volatile
  2151  0028'                    l98:
  2152                           
  2153                           ;./LIB_LCD.h: 85:     if (a & 32)
  2154  0028' 1E80'              	btfss	Lcd_Port@a,5
  2155  0029' 2800'              	goto	u1141
  2156  002A' 2800'              	goto	u1140
  2157  002B'                    u1141:
  2158  002B' 2800'              	goto	l99
  2159  002C'                    u1140:
  2160  002C'                    l1423:
  2161                           
  2162                           ;./LIB_LCD.h: 86:         RD5 = 1;
  2163  002C' 1688               	bsf	8,5	;volatile
  2164  002D' 2800'              	goto	l100
  2165  002E'                    l99:	
  2166                           ;./LIB_LCD.h: 87:     else
  2167                           
  2168                           
  2169                           ;./LIB_LCD.h: 88:         RD5 = 0;
  2170  002E' 1288               	bcf	8,5	;volatile
  2171  002F'                    l100:
  2172                           
  2173                           ;./LIB_LCD.h: 90:     if (a & 64)
  2174  002F' 1F00'              	btfss	Lcd_Port@a,6
  2175  0030' 2800'              	goto	u1151
  2176  0031' 2800'              	goto	u1150
  2177  0032'                    u1151:
  2178  0032' 2800'              	goto	l101
  2179  0033'                    u1150:
  2180  0033'                    l1425:
  2181                           
  2182                           ;./LIB_LCD.h: 91:         RD6 = 1;
  2183  0033' 1708               	bsf	8,6	;volatile
  2184  0034' 2800'              	goto	l102
  2185  0035'                    l101:	
  2186                           ;./LIB_LCD.h: 92:     else
  2187                           
  2188                           
  2189                           ;./LIB_LCD.h: 93:         RD6 = 0;
  2190  0035' 1308               	bcf	8,6	;volatile
  2191  0036'                    l102:
  2192                           
  2193                           ;./LIB_LCD.h: 95:     if (a & 128)
  2194  0036' 1F80'              	btfss	Lcd_Port@a,7
  2195  0037' 2800'              	goto	u1161
  2196  0038' 2800'              	goto	u1160
  2197  0039'                    u1161:
  2198  0039' 2800'              	goto	l103
  2199  003A'                    u1160:
  2200  003A'                    l1427:
  2201                           
  2202                           ;./LIB_LCD.h: 96:         RD7 = 1;
  2203  003A' 1788               	bsf	8,7	;volatile
  2204  003B' 2800'              	goto	l105
  2205  003C'                    l103:	
  2206                           ;./LIB_LCD.h: 97:     else
  2207                           
  2208                           
  2209                           ;./LIB_LCD.h: 98:         RD7 = 0;
  2210  003C' 1388               	bcf	8,7	;volatile
  2211  003D'                    l105:
  2212  003D' 0008               	return
  2213  003E'                    __end_of_Lcd_Port:
  2214                           
  2215                           	psect	text14
  2216  0000'                    __ptext14:	
  2217 ;; *************** function _CONFIG_IO *****************
  2218 ;; Defined at:
  2219 ;;		line 97 in file "Laboratorio_03.c"
  2220 ;; Parameters:    Size  Location     Type
  2221 ;;		None
  2222 ;; Auto vars:     Size  Location     Type
  2223 ;;		None
  2224 ;; Return value:  Size  Location     Type
  2225 ;;                  1    wreg      void 
  2226 ;; Registers used:
  2227 ;;		wreg, status,2
  2228 ;; Tracked objects:
  2229 ;;		On entry : 0/0
  2230 ;;		On exit  : 0/0
  2231 ;;		Unchanged: 0/0
  2232 ;; Data sizes:     COMMON   BANK0   BANK1   BANK3   BANK2
  2233 ;;      Params:         0       0       0       0       0
  2234 ;;      Locals:         0       0       0       0       0
  2235 ;;      Temps:          0       0       0       0       0
  2236 ;;      Totals:         0       0       0       0       0
  2237 ;;Total ram usage:        0 bytes
  2238 ;; Hardware stack levels used:    1
  2239 ;; This function calls:
  2240 ;;		Nothing
  2241 ;; This function is called by:
  2242 ;;		_main
  2243 ;; This function uses a non-reentrant model
  2244 ;;
  2245                           
  2246                           
  2247                           ;psect for function _CONFIG_IO
  2248  0000'                    _CONFIG_IO:
  2249  0000'                    l1889:	
  2250                           ;incstack = 0
  2251                           ; Regs used in _CONFIG_IO: [wreg+status,2]
  2252                           
  2253                           
  2254                           ;Laboratorio_03.c: 98:     ANSEL = 0b00000011;
  2255  0000' 3003               	movlw	3
  2256  0001' 1683               	bsf	3,5	;RP0=1, select bank3
  2257  0002' 1703               	bsf	3,6	;RP1=1, select bank3
  2258  0003' 0088               	movwf	8	;volatile
  2259  0004'                    l1891:
  2260                           
  2261                           ;Laboratorio_03.c: 99:     ANSELH = 0;
  2262  0004' 0189               	clrf	9	;volatile
  2263  0005'                    l1893:
  2264                           
  2265                           ;Laboratorio_03.c: 100:     TRISA = 0b00000011;
  2266  0005' 3003               	movlw	3
  2267  0006' 1683               	bsf	3,5	;RP0=1, select bank1
  2268  0007' 1303               	bcf	3,6	;RP1=0, select bank1
  2269  0008' 0085               	movwf	5	;volatile
  2270                           
  2271                           ;Laboratorio_03.c: 101:     TRISB = 0;
  2272  0009' 0186               	clrf	6	;volatile
  2273  000A'                    l1895:
  2274                           
  2275                           ;Laboratorio_03.c: 102:     TRISCbits.TRISC7 = 1;
  2276  000A' 1787               	bsf	7,7	;volatile
  2277  000B'                    l1897:
  2278                           
  2279                           ;Laboratorio_03.c: 103:     TRISCbits.TRISC6 = 0;
  2280  000B' 1307               	bcf	7,6	;volatile
  2281                           
  2282                           ;Laboratorio_03.c: 104:     TRISD = 0;
  2283  000C' 0188               	clrf	8	;volatile
  2284                           
  2285                           ;Laboratorio_03.c: 105:     TRISE = 0;
  2286  000D' 0189               	clrf	9	;volatile
  2287                           
  2288                           ;Laboratorio_03.c: 107:     PORTB = 0;
  2289  000E' 1283               	bcf	3,5	;RP0=0, select bank0
  2290  000F' 1303               	bcf	3,6	;RP1=0, select bank0
  2291  0010' 0186               	clrf	6	;volatile
  2292                           
  2293                           ;Laboratorio_03.c: 108:     PORTC = 0;
  2294  0011' 0187               	clrf	7	;volatile
  2295                           
  2296                           ;Laboratorio_03.c: 109:     PORTA = 0;
  2297  0012' 0185               	clrf	5	;volatile
  2298                           
  2299                           ;Laboratorio_03.c: 110:     PORTE = 0;
  2300  0013' 0189               	clrf	9	;volatile
  2301  0014'                    l186:
  2302  0014' 0008               	return
  2303  0015'                    __end_of_CONFIG_IO:
  2304                           
  2305                           	psect	text15
  2306  0000'                    __ptext15:	
  2307 ;; *************** function _Baudios *****************
  2308 ;; Defined at:
  2309 ;;		line 16 in file "./LIB_USART.h"
  2310 ;; Parameters:    Size  Location     Type
  2311 ;;		None
  2312 ;; Auto vars:     Size  Location     Type
  2313 ;;		None
  2314 ;; Return value:  Size  Location     Type
  2315 ;;                  1    wreg      void 
  2316 ;; Registers used:
  2317 ;;		wreg
  2318 ;; Tracked objects:
  2319 ;;		On entry : 0/0
  2320 ;;		On exit  : 0/0
  2321 ;;		Unchanged: 0/0
  2322 ;; Data sizes:     COMMON   BANK0   BANK1   BANK3   BANK2
  2323 ;;      Params:         0       0       0       0       0
  2324 ;;      Locals:         0       0       0       0       0
  2325 ;;      Temps:          0       0       0       0       0
  2326 ;;      Totals:         0       0       0       0       0
  2327 ;;Total ram usage:        0 bytes
  2328 ;; Hardware stack levels used:    1
  2329 ;; This function calls:
  2330 ;;		Nothing
  2331 ;; This function is called by:
  2332 ;;		_main
  2333 ;; This function uses a non-reentrant model
  2334 ;;
  2335                           
  2336                           
  2337                           ;psect for function _Baudios
  2338  0000'                    _Baudios:
  2339  0000'                    l1881:	
  2340                           ;incstack = 0
  2341                           ; Regs used in _Baudios: [wreg]
  2342                           
  2343                           
  2344                           ;./LIB_USART.h: 17:     SPBRG = 12;
  2345  0000' 300C               	movlw	12
  2346  0001' 1683               	bsf	3,5	;RP0=1, select bank1
  2347  0002' 1303               	bcf	3,6	;RP1=0, select bank1
  2348  0003' 0099               	movwf	25	;volatile
  2349  0004'                    l163:
  2350  0004' 0008               	return
  2351  0005'                    __end_of_Baudios:
  2352                           
  2353                           	psect	text16
  2354  0000'                    __ptext16:	
  2355 ;; *************** function _ADC_INTERRUPT *****************
  2356 ;; Defined at:
  2357 ;;		line 118 in file "Laboratorio_03.c"
  2358 ;; Parameters:    Size  Location     Type
  2359 ;;		None
  2360 ;; Auto vars:     Size  Location     Type
  2361 ;;		None
  2362 ;; Return value:  Size  Location     Type
  2363 ;;                  1    wreg      void 
  2364 ;; Registers used:
  2365 ;;		status,2
  2366 ;; Tracked objects:
  2367 ;;		On entry : 0/0
  2368 ;;		On exit  : 0/0
  2369 ;;		Unchanged: 0/0
  2370 ;; Data sizes:     COMMON   BANK0   BANK1   BANK3   BANK2
  2371 ;;      Params:         0       0       0       0       0
  2372 ;;      Locals:         0       0       0       0       0
  2373 ;;      Temps:          0       0       0       0       0
  2374 ;;      Totals:         0       0       0       0       0
  2375 ;;Total ram usage:        0 bytes
  2376 ;; Hardware stack levels used:    1
  2377 ;; This function calls:
  2378 ;;		Nothing
  2379 ;; This function is called by:
  2380 ;;		_main
  2381 ;; This function uses a non-reentrant model
  2382 ;;
  2383                           
  2384                           
  2385                           ;psect for function _ADC_INTERRUPT
  2386  0000'                    _ADC_INTERRUPT:
  2387  0000'                    l1901:	
  2388                           ;incstack = 0
  2389                           ; Regs used in _ADC_INTERRUPT: [status,2]
  2390                           
  2391                           
  2392                           ;Laboratorio_03.c: 119:     PIE1bits.ADIE = 0;
  2393  0000' 1683               	bsf	3,5	;RP0=1, select bank1
  2394  0001' 1303               	bcf	3,6	;RP1=0, select bank1
  2395  0002' 130C               	bcf	12,6	;volatile
  2396                           
  2397                           ;Laboratorio_03.c: 120:     PIR1bits.ADIF = 0;
  2398  0003' 1283               	bcf	3,5	;RP0=0, select bank0
  2399  0004' 1303               	bcf	3,6	;RP1=0, select bank0
  2400  0005' 130C               	bcf	12,6	;volatile
  2401  0006'                    l1903:
  2402                           
  2403                           ;Laboratorio_03.c: 121:     OPTION_REG = 0b00000000;
  2404  0006' 1683               	bsf	3,5	;RP0=1, select bank1
  2405  0007' 1303               	bcf	3,6	;RP1=0, select bank1
  2406  0008' 0181               	clrf	1	;volatile
  2407                           
  2408                           ;Laboratorio_03.c: 122:     INTCON = 0b00000000;
  2409  0009' 018B               	clrf	11	;volatile
  2410  000A'                    l192:
  2411  000A' 0008               	return
  2412  000B'                    __end_of_ADC_INTERRUPT:
  2413                           
  2414                           	psect	text17
  2415  0000'                    __ptext17:	
  2416 ;; *************** function _ADC_INIT *****************
  2417 ;; Defined at:
  2418 ;;		line 149 in file "./LIB_ADC.h"
  2419 ;; Parameters:    Size  Location     Type
  2420 ;;		None
  2421 ;; Auto vars:     Size  Location     Type
  2422 ;;		None
  2423 ;; Return value:  Size  Location     Type
  2424 ;;                  1    wreg      void 
  2425 ;; Registers used:
  2426 ;;		status,2
  2427 ;; Tracked objects:
  2428 ;;		On entry : 0/0
  2429 ;;		On exit  : 0/0
  2430 ;;		Unchanged: 0/0
  2431 ;; Data sizes:     COMMON   BANK0   BANK1   BANK3   BANK2
  2432 ;;      Params:         0       0       0       0       0
  2433 ;;      Locals:         0       0       0       0       0
  2434 ;;      Temps:          0       0       0       0       0
  2435 ;;      Totals:         0       0       0       0       0
  2436 ;;Total ram usage:        0 bytes
  2437 ;; Hardware stack levels used:    1
  2438 ;; This function calls:
  2439 ;;		Nothing
  2440 ;; This function is called by:
  2441 ;;		_main
  2442 ;; This function uses a non-reentrant model
  2443 ;;
  2444                           
  2445                           
  2446                           ;psect for function _ADC_INIT
  2447  0000'                    _ADC_INIT:
  2448  0000'                    l1879:	
  2449                           ;incstack = 0
  2450                           ; Regs used in _ADC_INIT: [status,2]
  2451                           
  2452                           
  2453                           ;./LIB_ADC.h: 150:     ADCON1 = 0b00000000;
  2454  0000' 1683               	bsf	3,5	;RP0=1, select bank1
  2455  0001' 1303               	bcf	3,6	;RP1=0, select bank1
  2456  0002' 019F               	clrf	31	;volatile
  2457  0003'                    l160:
  2458  0003' 0008               	return
  2459  0004'                    __end_of_ADC_INIT:
  2460                           
  2461                           	psect	text18
  2462  0000'                    __ptext18:	
  2463 ;; *************** function _ADC_2 *****************
  2464 ;; Defined at:
  2465 ;;		line 146 in file "Laboratorio_03.c"
  2466 ;; Parameters:    Size  Location     Type
  2467 ;;		None
  2468 ;; Auto vars:     Size  Location     Type
  2469 ;;		None
  2470 ;; Return value:  Size  Location     Type
  2471 ;;                  1    wreg      void 
  2472 ;; Registers used:
  2473 ;;		wreg, fsr0l, fsr0h, status,2, status,0, btemp+1, pclath, cstack
  2474 ;; Tracked objects:
  2475 ;;		On entry : 0/0
  2476 ;;		On exit  : 0/0
  2477 ;;		Unchanged: 0/0
  2478 ;; Data sizes:     COMMON   BANK0   BANK1   BANK3   BANK2
  2479 ;;      Params:         0       0       0       0       0
  2480 ;;      Locals:         0       0       0       0       0
  2481 ;;      Temps:          0       4       0       0       0
  2482 ;;      Totals:         0       4       0       0       0
  2483 ;;Total ram usage:        4 bytes
  2484 ;; Hardware stack levels used:    1
  2485 ;; Hardware stack levels required when called:    2
  2486 ;; This function calls:
  2487 ;;		_ADC_CHANNEL
  2488 ;;		___fldiv
  2489 ;;		___flmul
  2490 ;;		___xxtofl
  2491 ;; This function is called by:
  2492 ;;		_main
  2493 ;; This function uses a non-reentrant model
  2494 ;;
  2495                           
  2496                           
  2497                           ;psect for function _ADC_2
  2498  0000'                    _ADC_2:
  2499  0000'                    l1923:	
  2500                           ;incstack = 0
  2501                           ; Regs used in _ADC_2: [wreg-fsr0h+status,2+status,0+btemp+1+pclath+cstack]
  2502                           
  2503                           
  2504                           ;Laboratorio_03.c: 147:     ADC_CHANNEL(1);
  2505  0000' 3001               	movlw	1
  2506  0001' 0080'              	movwf	ADC_CHANNEL@canal
  2507  0002' 3000               	movlw	0
  2508  0003' 0081'              	movwf	ADC_CHANNEL@canal+1
  2509  0004' 120A' 118A' 2000' 120A' 118A' 	fcall	_ADC_CHANNEL
  2510  0009'                    l1925:
  2511                           
  2512                           ;Laboratorio_03.c: 148:     ADCON0bits.ADCS0 = 1;
  2513  0009' 1283               	bcf	3,5	;RP0=0, select bank0
  2514  000A' 1303               	bcf	3,6	;RP1=0, select bank0
  2515  000B' 171F               	bsf	31,6	;volatile
  2516  000C'                    l1927:
  2517                           
  2518                           ;Laboratorio_03.c: 149:     ADCON0bits.ADCS1 = 0;
  2519  000C' 139F               	bcf	31,7	;volatile
  2520  000D'                    l1929:
  2521                           
  2522                           ;Laboratorio_03.c: 150:     ADCON0bits.ADON = 1;
  2523  000D' 141F               	bsf	31,0	;volatile
  2524  000E'                    l1931:
  2525                           
  2526                           ;Laboratorio_03.c: 151:     _delay((unsigned long)((0.25)*(8000000/4000.0)));
  2527  000E' 30A5               	movlw	165
  2528  000F' 1283               	bcf	3,5	;RP0=0, select bank0
  2529  0010' 1303               	bcf	3,6	;RP1=0, select bank0
  2530  0011' 00B4'              	movwf	??_ADC_2
  2531  0012'                    u2307:
  2532  0012' 0BB4'              	decfsz	??_ADC_2,f
  2533  0013' 2800'              	goto	u2307
  2534  0014' 2800'              	nop2
  2535  0015'                    l1933:
  2536                           
  2537                           ;Laboratorio_03.c: 152:     ADCON0bits.GO = 1;
  2538  0015' 1283               	bcf	3,5	;RP0=0, select bank0
  2539  0016' 1303               	bcf	3,6	;RP1=0, select bank0
  2540  0017' 149F               	bsf	31,1	;volatile
  2541                           
  2542                           ;Laboratorio_03.c: 153:     while (ADCON0bits.GO == 1) {
  2543  0018' 2800'              	goto	l1937
  2544  0019'                    l1935:
  2545                           
  2546                           ;Laboratorio_03.c: 154:         volt2 = ((ADRESH * 5.0) / 255);
  2547  0019' 3043               	movlw	67
  2548  001A' 009D'              	movwf	___fldiv@a+3
  2549  001B' 307F               	movlw	127
  2550  001C' 009C'              	movwf	___fldiv@a+2
  2551  001D' 3000               	movlw	0
  2552  001E' 009B'              	movwf	___fldiv@a+1
  2553  001F' 3000               	movlw	0
  2554  0020' 009A'              	movwf	___fldiv@a
  2555  0021' 3040               	movlw	64
  2556  0022' 0083'              	movwf	___flmul@b+3
  2557  0023' 30A0               	movlw	160
  2558  0024' 0082'              	movwf	___flmul@b+2
  2559  0025' 3000               	movlw	0
  2560  0026' 0081'              	movwf	___flmul@b+1
  2561  0027' 3000               	movlw	0
  2562  0028' 0080'              	movwf	___flmul@b
  2563  0029' 081E               	movf	30,w	;volatile
  2564  002A' 00B4'              	movwf	??_ADC_2
  2565  002B' 01B5'              	clrf	??_ADC_2+1
  2566  002C' 01B6'              	clrf	??_ADC_2+2
  2567  002D' 01B7'              	clrf	??_ADC_2+3
  2568  002E' 0837'              	movf	??_ADC_2+3,w
  2569  002F' 0083'              	movwf	___xxtofl@val+3
  2570  0030' 0836'              	movf	??_ADC_2+2,w
  2571  0031' 0082'              	movwf	___xxtofl@val+2
  2572  0032' 0835'              	movf	??_ADC_2+1,w
  2573  0033' 0081'              	movwf	___xxtofl@val+1
  2574  0034' 0834'              	movf	??_ADC_2,w
  2575  0035' 0080'              	movwf	___xxtofl@val
  2576  0036' 3001               	movlw	1
  2577  0037' 120A' 118A' 2000' 120A' 118A' 	fcall	___xxtofl
  2578  003C' 0803'              	movf	?___xxtofl+3,w
  2579  003D' 1283               	bcf	3,5	;RP0=0, select bank0
  2580  003E' 1303               	bcf	3,6	;RP1=0, select bank0
  2581  003F' 0087'              	movwf	___flmul@a+3
  2582  0040' 0802'              	movf	?___xxtofl+2,w
  2583  0041' 0086'              	movwf	___flmul@a+2
  2584  0042' 0801'              	movf	?___xxtofl+1,w
  2585  0043' 0085'              	movwf	___flmul@a+1
  2586  0044' 0800'              	movf	?___xxtofl,w
  2587  0045' 0084'              	movwf	___flmul@a
  2588  0046' 120A' 118A' 2000' 120A' 118A' 	fcall	___flmul
  2589  004B' 1283               	bcf	3,5	;RP0=0, select bank0
  2590  004C' 1303               	bcf	3,6	;RP1=0, select bank0
  2591  004D' 0803'              	movf	?___flmul+3,w
  2592  004E' 00A1'              	movwf	___fldiv@b+3
  2593  004F' 0802'              	movf	?___flmul+2,w
  2594  0050' 00A0'              	movwf	___fldiv@b+2
  2595  0051' 0801'              	movf	?___flmul+1,w
  2596  0052' 009F'              	movwf	___fldiv@b+1
  2597  0053' 0800'              	movf	?___flmul,w
  2598  0054' 009E'              	movwf	___fldiv@b
  2599  0055' 120A' 118A' 2000' 120A' 118A' 	fcall	___fldiv
  2600  005A' 1283               	bcf	3,5	;RP0=0, select bank0
  2601  005B' 1303               	bcf	3,6	;RP1=0, select bank0
  2602  005C' 081D'              	movf	?___fldiv+3,w
  2603  005D' 0083'              	movwf	_volt2+3
  2604  005E' 081C'              	movf	?___fldiv+2,w
  2605  005F' 0082'              	movwf	_volt2+2
  2606  0060' 081B'              	movf	?___fldiv+1,w
  2607  0061' 0081'              	movwf	_volt2+1
  2608  0062' 081A'              	movf	?___fldiv,w
  2609  0063' 0080'              	movwf	_volt2
  2610  0064'                    l1937:
  2611                           
  2612                           ;Laboratorio_03.c: 153:     while (ADCON0bits.GO == 1) {
  2613  0064' 189F               	btfsc	31,1	;volatile
  2614  0065' 2800'              	goto	u2161
  2615  0066' 2800'              	goto	u2160
  2616  0067'                    u2161:
  2617  0067' 2800'              	goto	l1935
  2618  0068'                    u2160:
  2619  0068'                    l210:
  2620  0068' 0008               	return
  2621  0069'                    __end_of_ADC_2:
  2622                           
  2623                           	psect	text19
  2624  0000'                    __ptext19:	
  2625 ;; *************** function _ADC_1 *****************
  2626 ;; Defined at:
  2627 ;;		line 125 in file "Laboratorio_03.c"
  2628 ;; Parameters:    Size  Location     Type
  2629 ;;		None
  2630 ;; Auto vars:     Size  Location     Type
  2631 ;;		None
  2632 ;; Return value:  Size  Location     Type
  2633 ;;                  1    wreg      void 
  2634 ;; Registers used:
  2635 ;;		wreg, fsr0l, fsr0h, status,2, status,0, btemp+1, pclath, cstack
  2636 ;; Tracked objects:
  2637 ;;		On entry : 0/0
  2638 ;;		On exit  : 0/0
  2639 ;;		Unchanged: 0/0
  2640 ;; Data sizes:     COMMON   BANK0   BANK1   BANK3   BANK2
  2641 ;;      Params:         0       0       0       0       0
  2642 ;;      Locals:         0       0       0       0       0
  2643 ;;      Temps:          0       4       0       0       0
  2644 ;;      Totals:         0       4       0       0       0
  2645 ;;Total ram usage:        4 bytes
  2646 ;; Hardware stack levels used:    1
  2647 ;; Hardware stack levels required when called:    2
  2648 ;; This function calls:
  2649 ;;		_ADC_CHANNEL
  2650 ;;		___fldiv
  2651 ;;		___flmul
  2652 ;;		___xxtofl
  2653 ;; This function is called by:
  2654 ;;		_main
  2655 ;; This function uses a non-reentrant model
  2656 ;;
  2657                           
  2658                           
  2659                           ;psect for function _ADC_1
  2660  0000'                    _ADC_1:
  2661  0000'                    l1905:	
  2662                           ;incstack = 0
  2663                           ; Regs used in _ADC_1: [wreg-fsr0h+status,2+status,0+btemp+1+pclath+cstack]
  2664                           
  2665                           
  2666                           ;Laboratorio_03.c: 126:     ADC_CHANNEL(0);
  2667  0000' 3000               	movlw	0
  2668  0001' 0080'              	movwf	ADC_CHANNEL@canal
  2669  0002' 0081'              	movwf	ADC_CHANNEL@canal+1
  2670  0003' 120A' 118A' 2000' 120A' 118A' 	fcall	_ADC_CHANNEL
  2671  0008'                    l1907:
  2672                           
  2673                           ;Laboratorio_03.c: 128:     ADCON0bits.ADCS0 = 1;
  2674  0008' 1283               	bcf	3,5	;RP0=0, select bank0
  2675  0009' 1303               	bcf	3,6	;RP1=0, select bank0
  2676  000A' 171F               	bsf	31,6	;volatile
  2677  000B'                    l1909:
  2678                           
  2679                           ;Laboratorio_03.c: 129:     ADCON0bits.ADCS1 = 0;
  2680  000B' 139F               	bcf	31,7	;volatile
  2681  000C'                    l1911:
  2682                           
  2683                           ;Laboratorio_03.c: 130:     ADCON0bits.ADON = 1;
  2684  000C' 141F               	bsf	31,0	;volatile
  2685  000D'                    l1913:
  2686                           
  2687                           ;Laboratorio_03.c: 131:     _delay((unsigned long)((0.25)*(8000000/4000.0)));
  2688  000D' 30A5               	movlw	165
  2689  000E' 1283               	bcf	3,5	;RP0=0, select bank0
  2690  000F' 1303               	bcf	3,6	;RP1=0, select bank0
  2691  0010' 00B4'              	movwf	??_ADC_1
  2692  0011'                    u2317:
  2693  0011' 0BB4'              	decfsz	??_ADC_1,f
  2694  0012' 2800'              	goto	u2317
  2695  0013' 2800'              	nop2
  2696  0014'                    l1915:
  2697                           
  2698                           ;Laboratorio_03.c: 132:     ADCON0bits.GO = 1;
  2699  0014' 1283               	bcf	3,5	;RP0=0, select bank0
  2700  0015' 1303               	bcf	3,6	;RP1=0, select bank0
  2701  0016' 149F               	bsf	31,1	;volatile
  2702                           
  2703                           ;Laboratorio_03.c: 133:     while (ADCON0bits.GO == 1) {
  2704  0017' 2800'              	goto	l1919
  2705  0018'                    l1917:
  2706                           
  2707                           ;Laboratorio_03.c: 134:         volt = ((ADRESH * 5.0) / 255);
  2708  0018' 3043               	movlw	67
  2709  0019' 009D'              	movwf	___fldiv@a+3
  2710  001A' 307F               	movlw	127
  2711  001B' 009C'              	movwf	___fldiv@a+2
  2712  001C' 3000               	movlw	0
  2713  001D' 009B'              	movwf	___fldiv@a+1
  2714  001E' 3000               	movlw	0
  2715  001F' 009A'              	movwf	___fldiv@a
  2716  0020' 3040               	movlw	64
  2717  0021' 0083'              	movwf	___flmul@b+3
  2718  0022' 30A0               	movlw	160
  2719  0023' 0082'              	movwf	___flmul@b+2
  2720  0024' 3000               	movlw	0
  2721  0025' 0081'              	movwf	___flmul@b+1
  2722  0026' 3000               	movlw	0
  2723  0027' 0080'              	movwf	___flmul@b
  2724  0028' 081E               	movf	30,w	;volatile
  2725  0029' 00B4'              	movwf	??_ADC_1
  2726  002A' 01B5'              	clrf	??_ADC_1+1
  2727  002B' 01B6'              	clrf	??_ADC_1+2
  2728  002C' 01B7'              	clrf	??_ADC_1+3
  2729  002D' 0837'              	movf	??_ADC_1+3,w
  2730  002E' 0083'              	movwf	___xxtofl@val+3
  2731  002F' 0836'              	movf	??_ADC_1+2,w
  2732  0030' 0082'              	movwf	___xxtofl@val+2
  2733  0031' 0835'              	movf	??_ADC_1+1,w
  2734  0032' 0081'              	movwf	___xxtofl@val+1
  2735  0033' 0834'              	movf	??_ADC_1,w
  2736  0034' 0080'              	movwf	___xxtofl@val
  2737  0035' 3001               	movlw	1
  2738  0036' 120A' 118A' 2000' 120A' 118A' 	fcall	___xxtofl
  2739  003B' 0803'              	movf	?___xxtofl+3,w
  2740  003C' 1283               	bcf	3,5	;RP0=0, select bank0
  2741  003D' 1303               	bcf	3,6	;RP1=0, select bank0
  2742  003E' 0087'              	movwf	___flmul@a+3
  2743  003F' 0802'              	movf	?___xxtofl+2,w
  2744  0040' 0086'              	movwf	___flmul@a+2
  2745  0041' 0801'              	movf	?___xxtofl+1,w
  2746  0042' 0085'              	movwf	___flmul@a+1
  2747  0043' 0800'              	movf	?___xxtofl,w
  2748  0044' 0084'              	movwf	___flmul@a
  2749  0045' 120A' 118A' 2000' 120A' 118A' 	fcall	___flmul
  2750  004A' 1283               	bcf	3,5	;RP0=0, select bank0
  2751  004B' 1303               	bcf	3,6	;RP1=0, select bank0
  2752  004C' 0803'              	movf	?___flmul+3,w
  2753  004D' 00A1'              	movwf	___fldiv@b+3
  2754  004E' 0802'              	movf	?___flmul+2,w
  2755  004F' 00A0'              	movwf	___fldiv@b+2
  2756  0050' 0801'              	movf	?___flmul+1,w
  2757  0051' 009F'              	movwf	___fldiv@b+1
  2758  0052' 0800'              	movf	?___flmul,w
  2759  0053' 009E'              	movwf	___fldiv@b
  2760  0054' 120A' 118A' 2000' 120A' 118A' 	fcall	___fldiv
  2761  0059' 1283               	bcf	3,5	;RP0=0, select bank0
  2762  005A' 1303               	bcf	3,6	;RP1=0, select bank0
  2763  005B' 081D'              	movf	?___fldiv+3,w
  2764  005C' 0087'              	movwf	_volt+3
  2765  005D' 081C'              	movf	?___fldiv+2,w
  2766  005E' 0086'              	movwf	_volt+2
  2767  005F' 081B'              	movf	?___fldiv+1,w
  2768  0060' 0085'              	movwf	_volt+1
  2769  0061' 081A'              	movf	?___fldiv,w
  2770  0062' 0084'              	movwf	_volt
  2771  0063'                    l1919:
  2772                           
  2773                           ;Laboratorio_03.c: 133:     while (ADCON0bits.GO == 1) {
  2774  0063' 189F               	btfsc	31,1	;volatile
  2775  0064' 2800'              	goto	u2151
  2776  0065' 2800'              	goto	u2150
  2777  0066'                    u2151:
  2778  0066' 2800'              	goto	l1917
  2779  0067'                    u2150:
  2780  0067'                    l198:
  2781  0067' 0008               	return
  2782  0068'                    __end_of_ADC_1:
  2783                           
  2784                           	psect	text20
  2785  0000'                    __ptext20:	
  2786 ;; *************** function ___xxtofl *****************
  2787 ;; Defined at:
  2788 ;;		line 10 in file "C:\Program Files\Microchip\xc8\v2.31\pic\sources\c90\common\xxtofl.c"
  2789 ;; Parameters:    Size  Location     Type
  2790 ;;  sign            1    wreg     unsigned char 
  2791 ;;  val             4    0[COMMON] long 
  2792 ;; Auto vars:     Size  Location     Type
  2793 ;;  sign            1    8[COMMON] unsigned char 
  2794 ;;  arg             4   10[COMMON] unsigned long 
  2795 ;;  exp             1    9[COMMON] unsigned char 
  2796 ;; Return value:  Size  Location     Type
  2797 ;;                  4    0[COMMON] unsigned char 
  2798 ;; Registers used:
  2799 ;;		wreg, status,2, status,0
  2800 ;; Tracked objects:
  2801 ;;		On entry : 0/0
  2802 ;;		On exit  : 0/0
  2803 ;;		Unchanged: 0/0
  2804 ;; Data sizes:     COMMON   BANK0   BANK1   BANK3   BANK2
  2805 ;;      Params:         4       0       0       0       0
  2806 ;;      Locals:         6       0       0       0       0
  2807 ;;      Temps:          4       0       0       0       0
  2808 ;;      Totals:        14       0       0       0       0
  2809 ;;Total ram usage:       14 bytes
  2810 ;; Hardware stack levels used:    1
  2811 ;; This function calls:
  2812 ;;		Nothing
  2813 ;; This function is called by:
  2814 ;;		_ADC_1
  2815 ;;		_ADC_2
  2816 ;; This function uses a non-reentrant model
  2817 ;;
  2818                           
  2819                           
  2820                           ;psect for function ___xxtofl
  2821  0000'                    ___xxtofl:
  2822                           
  2823                           ;incstack = 0
  2824                           ; Regs used in ___xxtofl: [wreg+status,2+status,0]
  2825                           ;___xxtofl@sign stored from wreg
  2826  0000' 0088'              	movwf	___xxtofl@sign
  2827  0001'                    l1791:
  2828  0001' 0808'              	movf	___xxtofl@sign,w
  2829  0002' 1903               	btfsc	3,2
  2830  0003' 2800'              	goto	u1961
  2831  0004' 2800'              	goto	u1960
  2832  0005'                    u1961:
  2833  0005' 2800'              	goto	l1797
  2834  0006'                    u1960:
  2835  0006'                    l1793:
  2836  0006' 1F83'              	btfss	___xxtofl@val+3,7
  2837  0007' 2800'              	goto	u1971
  2838  0008' 2800'              	goto	u1970
  2839  0009'                    u1971:
  2840  0009' 2800'              	goto	l1797
  2841  000A'                    u1970:
  2842  000A'                    l1795:
  2843  000A' 0900'              	comf	___xxtofl@val,w
  2844  000B' 008A'              	movwf	___xxtofl@arg
  2845  000C' 0901'              	comf	___xxtofl@val+1,w
  2846  000D' 008B'              	movwf	___xxtofl@arg+1
  2847  000E' 0902'              	comf	___xxtofl@val+2,w
  2848  000F' 008C'              	movwf	___xxtofl@arg+2
  2849  0010' 0903'              	comf	___xxtofl@val+3,w
  2850  0011' 008D'              	movwf	___xxtofl@arg+3
  2851  0012' 0A8A'              	incf	___xxtofl@arg,f
  2852  0013' 1903               	skipnz
  2853  0014' 0A8B'              	incf	___xxtofl@arg+1,f
  2854  0015' 1903               	skipnz
  2855  0016' 0A8C'              	incf	___xxtofl@arg+2,f
  2856  0017' 1903               	skipnz
  2857  0018' 0A8D'              	incf	___xxtofl@arg+3,f
  2858  0019' 2800'              	goto	l735
  2859  001A'                    l1797:
  2860  001A' 0803'              	movf	___xxtofl@val+3,w
  2861  001B' 008D'              	movwf	___xxtofl@arg+3
  2862  001C' 0802'              	movf	___xxtofl@val+2,w
  2863  001D' 008C'              	movwf	___xxtofl@arg+2
  2864  001E' 0801'              	movf	___xxtofl@val+1,w
  2865  001F' 008B'              	movwf	___xxtofl@arg+1
  2866  0020' 0800'              	movf	___xxtofl@val,w
  2867  0021' 008A'              	movwf	___xxtofl@arg
  2868  0022'                    l735:
  2869  0022' 0803'              	movf	___xxtofl@val+3,w
  2870  0023' 0402'              	iorwf	___xxtofl@val+2,w
  2871  0024' 0401'              	iorwf	___xxtofl@val+1,w
  2872  0025' 0400'              	iorwf	___xxtofl@val,w
  2873  0026' 1D03               	skipz
  2874  0027' 2800'              	goto	u1981
  2875  0028' 2800'              	goto	u1980
  2876  0029'                    u1981:
  2877  0029' 2800'              	goto	l1803
  2878  002A'                    u1980:
  2879  002A'                    l1799:
  2880  002A' 3000               	movlw	0
  2881  002B' 0083'              	movwf	?___xxtofl+3
  2882  002C' 3000               	movlw	0
  2883  002D' 0082'              	movwf	?___xxtofl+2
  2884  002E' 3000               	movlw	0
  2885  002F' 0081'              	movwf	?___xxtofl+1
  2886  0030' 3000               	movlw	0
  2887  0031' 0080'              	movwf	?___xxtofl
  2888  0032' 2800'              	goto	l737
  2889  0033'                    l1803:
  2890  0033' 3096               	movlw	150
  2891  0034' 0084'              	movwf	??___xxtofl
  2892  0035' 0804'              	movf	??___xxtofl,w
  2893  0036' 0089'              	movwf	___xxtofl@exp
  2894  0037' 2800'              	goto	l1807
  2895  0038'                    l1805:
  2896  0038' 3001               	movlw	1
  2897  0039' 0084'              	movwf	??___xxtofl
  2898  003A' 0804'              	movf	??___xxtofl,w
  2899  003B' 0789'              	addwf	___xxtofl@exp,f
  2900  003C' 3001               	movlw	1
  2901  003D'                    u1995:
  2902  003D' 1003               	clrc
  2903  003E' 0C8D'              	rrf	___xxtofl@arg+3,f
  2904  003F' 0C8C'              	rrf	___xxtofl@arg+2,f
  2905  0040' 0C8B'              	rrf	___xxtofl@arg+1,f
  2906  0041' 0C8A'              	rrf	___xxtofl@arg,f
  2907  0042' 3EFF               	addlw	-1
  2908  0043' 1D03               	skipz
  2909  0044' 2800'              	goto	u1995
  2910  0045'                    l1807:
  2911  0045' 30FE               	movlw	254
  2912  0046' 050D'              	andwf	___xxtofl@arg+3,w
  2913  0047' 1D03               	btfss	3,2
  2914  0048' 2800'              	goto	u2001
  2915  0049' 2800'              	goto	u2000
  2916  004A'                    u2001:
  2917  004A' 2800'              	goto	l1805
  2918  004B'                    u2000:
  2919  004B' 2800'              	goto	l741
  2920  004C'                    l1809:
  2921  004C' 3001               	movlw	1
  2922  004D' 0084'              	movwf	??___xxtofl
  2923  004E' 0804'              	movf	??___xxtofl,w
  2924  004F' 0789'              	addwf	___xxtofl@exp,f
  2925  0050'                    l1811:
  2926  0050' 3001               	movlw	1
  2927  0051' 078A'              	addwf	___xxtofl@arg,f
  2928  0052' 3000               	movlw	0
  2929  0053' 1803               	skipnc
  2930  0054' 3001               	movlw	1
  2931  0055' 078B'              	addwf	___xxtofl@arg+1,f
  2932  0056' 3000               	movlw	0
  2933  0057' 1803               	skipnc
  2934  0058' 3001               	movlw	1
  2935  0059' 078C'              	addwf	___xxtofl@arg+2,f
  2936  005A' 3000               	movlw	0
  2937  005B' 1803               	skipnc
  2938  005C' 3001               	movlw	1
  2939  005D' 078D'              	addwf	___xxtofl@arg+3,f
  2940  005E'                    l1813:
  2941  005E' 3001               	movlw	1
  2942  005F'                    u2015:
  2943  005F' 1003               	clrc
  2944  0060' 0C8D'              	rrf	___xxtofl@arg+3,f
  2945  0061' 0C8C'              	rrf	___xxtofl@arg+2,f
  2946  0062' 0C8B'              	rrf	___xxtofl@arg+1,f
  2947  0063' 0C8A'              	rrf	___xxtofl@arg,f
  2948  0064' 3EFF               	addlw	-1
  2949  0065' 1D03               	skipz
  2950  0066' 2800'              	goto	u2015
  2951  0067'                    l741:
  2952  0067' 30FF               	movlw	255
  2953  0068' 050D'              	andwf	___xxtofl@arg+3,w
  2954  0069' 1D03               	btfss	3,2
  2955  006A' 2800'              	goto	u2021
  2956  006B' 2800'              	goto	u2020
  2957  006C'                    u2021:
  2958  006C' 2800'              	goto	l1809
  2959  006D'                    u2020:
  2960  006D' 2800'              	goto	l1817
  2961  006E'                    l1815:
  2962  006E' 3001               	movlw	1
  2963  006F' 0289'              	subwf	___xxtofl@exp,f
  2964  0070' 3001               	movlw	1
  2965  0071' 0084'              	movwf	??___xxtofl
  2966  0072'                    u2035:
  2967  0072' 1003               	clrc
  2968  0073' 0D8A'              	rlf	___xxtofl@arg,f
  2969  0074' 0D8B'              	rlf	___xxtofl@arg+1,f
  2970  0075' 0D8C'              	rlf	___xxtofl@arg+2,f
  2971  0076' 0D8D'              	rlf	___xxtofl@arg+3,f
  2972  0077' 0B84'              	decfsz	??___xxtofl,f
  2973  0078' 2800'              	goto	u2035
  2974  0079'                    l1817:
  2975  0079' 1B8C'              	btfsc	___xxtofl@arg+2,7
  2976  007A' 2800'              	goto	u2041
  2977  007B' 2800'              	goto	u2040
  2978  007C'                    u2041:
  2979  007C' 2800'              	goto	l748
  2980  007D'                    u2040:
  2981  007D'                    l1819:
  2982  007D' 3002               	movlw	2
  2983  007E' 0209'              	subwf	___xxtofl@exp,w
  2984  007F' 1803               	skipnc
  2985  0080' 2800'              	goto	u2051
  2986  0081' 2800'              	goto	u2050
  2987  0082'                    u2051:
  2988  0082' 2800'              	goto	l1815
  2989  0083'                    u2050:
  2990  0083'                    l748:
  2991  0083' 1809'              	btfsc	___xxtofl@exp,0
  2992  0084' 2800'              	goto	u2061
  2993  0085' 2800'              	goto	u2060
  2994  0086'                    u2061:
  2995  0086' 2800'              	goto	l749
  2996  0087'                    u2060:
  2997  0087'                    l1821:
  2998  0087' 30FF               	movlw	255
  2999  0088' 058A'              	andwf	___xxtofl@arg,f
  3000  0089' 30FF               	movlw	255
  3001  008A' 058B'              	andwf	___xxtofl@arg+1,f
  3002  008B' 307F               	movlw	127
  3003  008C' 058C'              	andwf	___xxtofl@arg+2,f
  3004  008D' 30FF               	movlw	255
  3005  008E' 058D'              	andwf	___xxtofl@arg+3,f
  3006  008F'                    l749:
  3007  008F' 1003               	clrc
  3008  0090' 0C89'              	rrf	___xxtofl@exp,f
  3009  0091'                    l1823:
  3010  0091' 0809'              	movf	___xxtofl@exp,w
  3011  0092' 0084'              	movwf	??___xxtofl
  3012  0093' 0185'              	clrf	??___xxtofl+1
  3013  0094' 0186'              	clrf	??___xxtofl+2
  3014  0095' 0187'              	clrf	??___xxtofl+3
  3015  0096' 3018               	movlw	24
  3016  0097'                    u2075:
  3017  0097' 1003               	clrc
  3018  0098' 0D84'              	rlf	??___xxtofl,f
  3019  0099' 0D85'              	rlf	??___xxtofl+1,f
  3020  009A' 0D86'              	rlf	??___xxtofl+2,f
  3021  009B' 0D87'              	rlf	??___xxtofl+3,f
  3022  009C'                    u2070:
  3023  009C' 3EFF               	addlw	-1
  3024  009D' 1D03               	skipz
  3025  009E' 2800'              	goto	u2075
  3026  009F' 0804'              	movf	??___xxtofl,w
  3027  00A0' 048A'              	iorwf	___xxtofl@arg,f
  3028  00A1' 0805'              	movf	??___xxtofl+1,w
  3029  00A2' 048B'              	iorwf	___xxtofl@arg+1,f
  3030  00A3' 0806'              	movf	??___xxtofl+2,w
  3031  00A4' 048C'              	iorwf	___xxtofl@arg+2,f
  3032  00A5' 0807'              	movf	??___xxtofl+3,w
  3033  00A6' 048D'              	iorwf	___xxtofl@arg+3,f
  3034  00A7'                    l1825:
  3035  00A7' 0808'              	movf	___xxtofl@sign,w
  3036  00A8' 1903               	btfsc	3,2
  3037  00A9' 2800'              	goto	u2081
  3038  00AA' 2800'              	goto	u2080
  3039  00AB'                    u2081:
  3040  00AB' 2800'              	goto	l1831
  3041  00AC'                    u2080:
  3042  00AC'                    l1827:
  3043  00AC' 1F83'              	btfss	___xxtofl@val+3,7
  3044  00AD' 2800'              	goto	u2091
  3045  00AE' 2800'              	goto	u2090
  3046  00AF'                    u2091:
  3047  00AF' 2800'              	goto	l1831
  3048  00B0'                    u2090:
  3049  00B0'                    l1829:
  3050  00B0' 178D'              	bsf	___xxtofl@arg+3,7
  3051  00B1'                    l1831:
  3052  00B1' 080D'              	movf	___xxtofl@arg+3,w
  3053  00B2' 0083'              	movwf	?___xxtofl+3
  3054  00B3' 080C'              	movf	___xxtofl@arg+2,w
  3055  00B4' 0082'              	movwf	?___xxtofl+2
  3056  00B5' 080B'              	movf	___xxtofl@arg+1,w
  3057  00B6' 0081'              	movwf	?___xxtofl+1
  3058  00B7' 080A'              	movf	___xxtofl@arg,w
  3059  00B8' 0080'              	movwf	?___xxtofl
  3060  00B9'                    l737:
  3061  00B9' 0008               	return
  3062  00BA'                    __end_of___xxtofl:
  3063                           
  3064                           	psect	text21
  3065  0000'                    __ptext21:	
  3066 ;; *************** function ___flmul *****************
  3067 ;; Defined at:
  3068 ;;		line 8 in file "C:\Program Files\Microchip\xc8\v2.31\pic\sources\c90\common\sprcmul.c"
  3069 ;; Parameters:    Size  Location     Type
  3070 ;;  b               4    0[BANK0 ] unsigned char 
  3071 ;;  a               4    4[BANK0 ] unsigned char 
  3072 ;; Auto vars:     Size  Location     Type
  3073 ;;  prod            4   20[BANK0 ] struct .
  3074 ;;  grs             4   14[BANK0 ] unsigned long 
  3075 ;;  temp            2   24[BANK0 ] struct .
  3076 ;;  bexp            1   19[BANK0 ] unsigned char 
  3077 ;;  aexp            1   18[BANK0 ] unsigned char 
  3078 ;;  sign            1   13[BANK0 ] unsigned char 
  3079 ;; Return value:  Size  Location     Type
  3080 ;;                  4    0[BANK0 ] unsigned char 
  3081 ;; Registers used:
  3082 ;;		wreg, status,2, status,0, btemp+1, pclath, cstack
  3083 ;; Tracked objects:
  3084 ;;		On entry : 0/0
  3085 ;;		On exit  : 0/0
  3086 ;;		Unchanged: 0/0
  3087 ;; Data sizes:     COMMON   BANK0   BANK1   BANK3   BANK2
  3088 ;;      Params:         0       8       0       0       0
  3089 ;;      Locals:         0      13       0       0       0
  3090 ;;      Temps:          0       5       0       0       0
  3091 ;;      Totals:         0      26       0       0       0
  3092 ;;Total ram usage:       26 bytes
  3093 ;; Hardware stack levels used:    1
  3094 ;; Hardware stack levels required when called:    1
  3095 ;; This function calls:
  3096 ;;		__Umul8_16
  3097 ;; This function is called by:
  3098 ;;		_ADC_1
  3099 ;;		_ADC_2
  3100 ;; This function uses a non-reentrant model
  3101 ;;
  3102                           
  3103                           
  3104                           ;psect for function ___flmul
  3105  0000'                    ___flmul:
  3106  0000'                    l1651:	
  3107                           ;incstack = 0
  3108                           ; Regs used in ___flmul: [wreg+status,2+status,0+btemp+1+pclath+cstack]
  3109                           
  3110  0000' 1283               	bcf	3,5	;RP0=0, select bank0
  3111  0001' 1303               	bcf	3,6	;RP1=0, select bank0
  3112  0002' 0803'              	movf	___flmul@b+3,w
  3113  0003' 3980               	andlw	128
  3114  0004' 0088'              	movwf	??___flmul
  3115  0005' 0808'              	movf	??___flmul,w
  3116  0006' 008D'              	movwf	___flmul@sign
  3117  0007'                    l1653:
  3118  0007' 0803'              	movf	___flmul@b+3,w
  3119  0008' 0088'              	movwf	??___flmul
  3120  0009' 0708'              	addwf	??___flmul,w
  3121  000A' 0089'              	movwf	??___flmul+1
  3122  000B' 0809'              	movf	??___flmul+1,w
  3123  000C' 0093'              	movwf	___flmul@bexp
  3124  000D'                    l1655:
  3125  000D' 1F82'              	btfss	___flmul@b+2,7
  3126  000E' 2800'              	goto	u1591
  3127  000F' 2800'              	goto	u1590
  3128  0010'                    u1591:
  3129  0010' 2800'              	goto	l1659
  3130  0011'                    u1590:
  3131  0011'                    l1657:
  3132  0011' 1413'              	bsf	___flmul@bexp,0
  3133  0012'                    l1659:
  3134  0012' 0813'              	movf	___flmul@bexp,w
  3135  0013' 1903               	btfsc	3,2
  3136  0014' 2800'              	goto	u1601
  3137  0015' 2800'              	goto	u1600
  3138  0016'                    u1601:
  3139  0016' 2800'              	goto	l1667
  3140  0017'                    u1600:
  3141  0017'                    l1661:
  3142  0017' 0A13'              	incf	___flmul@bexp,w
  3143  0018' 1D03               	btfss	3,2
  3144  0019' 2800'              	goto	u1611
  3145  001A' 2800'              	goto	u1610
  3146  001B'                    u1611:
  3147  001B' 2800'              	goto	l1665
  3148  001C'                    u1610:
  3149  001C'                    l1663:
  3150  001C' 3000               	movlw	0
  3151  001D' 0083'              	movwf	___flmul@b+3
  3152  001E' 3000               	movlw	0
  3153  001F' 0082'              	movwf	___flmul@b+2
  3154  0020' 3000               	movlw	0
  3155  0021' 0081'              	movwf	___flmul@b+1
  3156  0022' 3000               	movlw	0
  3157  0023' 0080'              	movwf	___flmul@b
  3158  0024'                    l1665:
  3159  0024' 1782'              	bsf	___flmul@b+2,7
  3160  0025' 2800'              	goto	l1669
  3161  0026'                    l1667:
  3162  0026' 3000               	movlw	0
  3163  0027' 0083'              	movwf	___flmul@b+3
  3164  0028' 3000               	movlw	0
  3165  0029' 0082'              	movwf	___flmul@b+2
  3166  002A' 3000               	movlw	0
  3167  002B' 0081'              	movwf	___flmul@b+1
  3168  002C' 3000               	movlw	0
  3169  002D' 0080'              	movwf	___flmul@b
  3170  002E'                    l1669:
  3171  002E' 0807'              	movf	___flmul@a+3,w
  3172  002F' 3980               	andlw	128
  3173  0030' 0088'              	movwf	??___flmul
  3174  0031' 0808'              	movf	??___flmul,w
  3175  0032' 068D'              	xorwf	___flmul@sign,f
  3176  0033'                    l1671:
  3177  0033' 0807'              	movf	___flmul@a+3,w
  3178  0034' 0088'              	movwf	??___flmul
  3179  0035' 0708'              	addwf	??___flmul,w
  3180  0036' 0089'              	movwf	??___flmul+1
  3181  0037' 0809'              	movf	??___flmul+1,w
  3182  0038' 0092'              	movwf	___flmul@aexp
  3183  0039'                    l1673:
  3184  0039' 1F86'              	btfss	___flmul@a+2,7
  3185  003A' 2800'              	goto	u1621
  3186  003B' 2800'              	goto	u1620
  3187  003C'                    u1621:
  3188  003C' 2800'              	goto	l1677
  3189  003D'                    u1620:
  3190  003D'                    l1675:
  3191  003D' 1412'              	bsf	___flmul@aexp,0
  3192  003E'                    l1677:
  3193  003E' 0812'              	movf	___flmul@aexp,w
  3194  003F' 1903               	btfsc	3,2
  3195  0040' 2800'              	goto	u1631
  3196  0041' 2800'              	goto	u1630
  3197  0042'                    u1631:
  3198  0042' 2800'              	goto	l1685
  3199  0043'                    u1630:
  3200  0043'                    l1679:
  3201  0043' 0A12'              	incf	___flmul@aexp,w
  3202  0044' 1D03               	btfss	3,2
  3203  0045' 2800'              	goto	u1641
  3204  0046' 2800'              	goto	u1640
  3205  0047'                    u1641:
  3206  0047' 2800'              	goto	l1683
  3207  0048'                    u1640:
  3208  0048'                    l1681:
  3209  0048' 3000               	movlw	0
  3210  0049' 0087'              	movwf	___flmul@a+3
  3211  004A' 3000               	movlw	0
  3212  004B' 0086'              	movwf	___flmul@a+2
  3213  004C' 3000               	movlw	0
  3214  004D' 0085'              	movwf	___flmul@a+1
  3215  004E' 3000               	movlw	0
  3216  004F' 0084'              	movwf	___flmul@a
  3217  0050'                    l1683:
  3218  0050' 1786'              	bsf	___flmul@a+2,7
  3219  0051' 2800'              	goto	l1687
  3220  0052'                    l1685:
  3221  0052' 3000               	movlw	0
  3222  0053' 0087'              	movwf	___flmul@a+3
  3223  0054' 3000               	movlw	0
  3224  0055' 0086'              	movwf	___flmul@a+2
  3225  0056' 3000               	movlw	0
  3226  0057' 0085'              	movwf	___flmul@a+1
  3227  0058' 3000               	movlw	0
  3228  0059' 0084'              	movwf	___flmul@a
  3229  005A'                    l1687:
  3230  005A' 0812'              	movf	___flmul@aexp,w
  3231  005B' 1903               	btfsc	3,2
  3232  005C' 2800'              	goto	u1651
  3233  005D' 2800'              	goto	u1650
  3234  005E'                    u1651:
  3235  005E' 2800'              	goto	l1691
  3236  005F'                    u1650:
  3237  005F'                    l1689:
  3238  005F' 0813'              	movf	___flmul@bexp,w
  3239  0060' 1D03               	btfss	3,2
  3240  0061' 2800'              	goto	u1661
  3241  0062' 2800'              	goto	u1660
  3242  0063'                    u1661:
  3243  0063' 2800'              	goto	l1695
  3244  0064'                    u1660:
  3245  0064'                    l1691:
  3246  0064' 3000               	movlw	0
  3247  0065' 0083'              	movwf	?___flmul+3
  3248  0066' 3000               	movlw	0
  3249  0067' 0082'              	movwf	?___flmul+2
  3250  0068' 3000               	movlw	0
  3251  0069' 0081'              	movwf	?___flmul+1
  3252  006A' 3000               	movlw	0
  3253  006B' 0080'              	movwf	?___flmul
  3254  006C' 2800'              	goto	l691
  3255  006D'                    l1695:
  3256  006D' 0800'              	movf	___flmul@b,w
  3257  006E' 0088'              	movwf	??___flmul
  3258  006F' 0808'              	movf	??___flmul,w
  3259  0070' 0080'              	movwf	__Umul8_16@multiplicand
  3260  0071' 0806'              	movf	___flmul@a+2,w
  3261  0072' 120A' 118A' 2000' 120A' 118A' 	fcall	__Umul8_16
  3262  0077' 0801'              	movf	?__Umul8_16+1,w
  3263  0078' 1283               	bcf	3,5	;RP0=0, select bank0
  3264  0079' 1303               	bcf	3,6	;RP1=0, select bank0
  3265  007A' 0099'              	movwf	___flmul@temp+1
  3266  007B' 0800'              	movf	?__Umul8_16,w
  3267  007C' 0098'              	movwf	___flmul@temp
  3268  007D'                    l1697:
  3269  007D' 0818'              	movf	___flmul@temp,w
  3270  007E' 0088'              	movwf	??___flmul
  3271  007F' 0189'              	clrf	??___flmul+1
  3272  0080' 018A'              	clrf	??___flmul+2
  3273  0081' 018B'              	clrf	??___flmul+3
  3274  0082' 080B'              	movf	??___flmul+3,w
  3275  0083' 0091'              	movwf	___flmul@grs+3
  3276  0084' 080A'              	movf	??___flmul+2,w
  3277  0085' 0090'              	movwf	___flmul@grs+2
  3278  0086' 0809'              	movf	??___flmul+1,w
  3279  0087' 008F'              	movwf	___flmul@grs+1
  3280  0088' 0808'              	movf	??___flmul,w
  3281  0089' 008E'              	movwf	___flmul@grs
  3282  008A'                    l1699:
  3283  008A' 0819'              	movf	___flmul@temp+1,w
  3284  008B' 0088'              	movwf	??___flmul
  3285  008C' 0189'              	clrf	??___flmul+1
  3286  008D' 018A'              	clrf	??___flmul+2
  3287  008E' 018B'              	clrf	??___flmul+3
  3288  008F' 080B'              	movf	??___flmul+3,w
  3289  0090' 0097'              	movwf	___flmul@prod+3
  3290  0091' 080A'              	movf	??___flmul+2,w
  3291  0092' 0096'              	movwf	___flmul@prod+2
  3292  0093' 0809'              	movf	??___flmul+1,w
  3293  0094' 0095'              	movwf	___flmul@prod+1
  3294  0095' 0808'              	movf	??___flmul,w
  3295  0096' 0094'              	movwf	___flmul@prod
  3296  0097' 0801'              	movf	___flmul@b+1,w
  3297  0098' 0088'              	movwf	??___flmul
  3298  0099' 0808'              	movf	??___flmul,w
  3299  009A' 0080'              	movwf	__Umul8_16@multiplicand
  3300  009B' 0805'              	movf	___flmul@a+1,w
  3301  009C' 120A' 118A' 2000' 120A' 118A' 	fcall	__Umul8_16
  3302  00A1' 0801'              	movf	?__Umul8_16+1,w
  3303  00A2' 1283               	bcf	3,5	;RP0=0, select bank0
  3304  00A3' 1303               	bcf	3,6	;RP1=0, select bank0
  3305  00A4' 0099'              	movwf	___flmul@temp+1
  3306  00A5' 0800'              	movf	?__Umul8_16,w
  3307  00A6' 0098'              	movwf	___flmul@temp
  3308  00A7'                    l1701:
  3309  00A7' 0818'              	movf	___flmul@temp,w
  3310  00A8' 0088'              	movwf	??___flmul
  3311  00A9' 0189'              	clrf	??___flmul+1
  3312  00AA' 018A'              	clrf	??___flmul+2
  3313  00AB' 018B'              	clrf	??___flmul+3
  3314  00AC' 0808'              	movf	??___flmul,w
  3315  00AD' 078E'              	addwf	___flmul@grs,f
  3316  00AE' 0809'              	movf	??___flmul+1,w
  3317  00AF' 1103               	clrz
  3318  00B0' 1803               	skipnc
  3319  00B1' 3E01               	addlw	1
  3320  00B2' 1903               	skipnz
  3321  00B3' 2800'              	goto	u1671
  3322  00B4' 078F'              	addwf	___flmul@grs+1,f
  3323  00B5'                    u1671:
  3324  00B5' 080A'              	movf	??___flmul+2,w
  3325  00B6' 1103               	clrz
  3326  00B7' 1803               	skipnc
  3327  00B8' 3E01               	addlw	1
  3328  00B9' 1903               	skipnz
  3329  00BA' 2800'              	goto	u1672
  3330  00BB' 0790'              	addwf	___flmul@grs+2,f
  3331  00BC'                    u1672:
  3332  00BC' 080B'              	movf	??___flmul+3,w
  3333  00BD' 1103               	clrz
  3334  00BE' 1803               	skipnc
  3335  00BF' 3E01               	addlw	1
  3336  00C0' 1903               	skipnz
  3337  00C1' 2800'              	goto	u1673
  3338  00C2' 0791'              	addwf	___flmul@grs+3,f
  3339  00C3'                    u1673:
  3340  00C3'                    l1703:
  3341  00C3' 0819'              	movf	___flmul@temp+1,w
  3342  00C4' 0088'              	movwf	??___flmul
  3343  00C5' 0189'              	clrf	??___flmul+1
  3344  00C6' 018A'              	clrf	??___flmul+2
  3345  00C7' 018B'              	clrf	??___flmul+3
  3346  00C8' 0808'              	movf	??___flmul,w
  3347  00C9' 0794'              	addwf	___flmul@prod,f
  3348  00CA' 0809'              	movf	??___flmul+1,w
  3349  00CB' 1103               	clrz
  3350  00CC' 1803               	skipnc
  3351  00CD' 3E01               	addlw	1
  3352  00CE' 1903               	skipnz
  3353  00CF' 2800'              	goto	u1681
  3354  00D0' 0795'              	addwf	___flmul@prod+1,f
  3355  00D1'                    u1681:
  3356  00D1' 080A'              	movf	??___flmul+2,w
  3357  00D2' 1103               	clrz
  3358  00D3' 1803               	skipnc
  3359  00D4' 3E01               	addlw	1
  3360  00D5' 1903               	skipnz
  3361  00D6' 2800'              	goto	u1682
  3362  00D7' 0796'              	addwf	___flmul@prod+2,f
  3363  00D8'                    u1682:
  3364  00D8' 080B'              	movf	??___flmul+3,w
  3365  00D9' 1103               	clrz
  3366  00DA' 1803               	skipnc
  3367  00DB' 3E01               	addlw	1
  3368  00DC' 1903               	skipnz
  3369  00DD' 2800'              	goto	u1683
  3370  00DE' 0797'              	addwf	___flmul@prod+3,f
  3371  00DF'                    u1683:
  3372  00DF' 0802'              	movf	___flmul@b+2,w
  3373  00E0' 0088'              	movwf	??___flmul
  3374  00E1' 0808'              	movf	??___flmul,w
  3375  00E2' 0080'              	movwf	__Umul8_16@multiplicand
  3376  00E3' 0804'              	movf	___flmul@a,w
  3377  00E4' 120A' 118A' 2000' 120A' 118A' 	fcall	__Umul8_16
  3378  00E9' 0801'              	movf	?__Umul8_16+1,w
  3379  00EA' 1283               	bcf	3,5	;RP0=0, select bank0
  3380  00EB' 1303               	bcf	3,6	;RP1=0, select bank0
  3381  00EC' 0099'              	movwf	___flmul@temp+1
  3382  00ED' 0800'              	movf	?__Umul8_16,w
  3383  00EE' 0098'              	movwf	___flmul@temp
  3384  00EF'                    l1705:
  3385  00EF' 0818'              	movf	___flmul@temp,w
  3386  00F0' 0088'              	movwf	??___flmul
  3387  00F1' 0189'              	clrf	??___flmul+1
  3388  00F2' 018A'              	clrf	??___flmul+2
  3389  00F3' 018B'              	clrf	??___flmul+3
  3390  00F4' 0808'              	movf	??___flmul,w
  3391  00F5' 078E'              	addwf	___flmul@grs,f
  3392  00F6' 0809'              	movf	??___flmul+1,w
  3393  00F7' 1103               	clrz
  3394  00F8' 1803               	skipnc
  3395  00F9' 3E01               	addlw	1
  3396  00FA' 1903               	skipnz
  3397  00FB' 2800'              	goto	u1691
  3398  00FC' 078F'              	addwf	___flmul@grs+1,f
  3399  00FD'                    u1691:
  3400  00FD' 080A'              	movf	??___flmul+2,w
  3401  00FE' 1103               	clrz
  3402  00FF' 1803               	skipnc
  3403  0100' 3E01               	addlw	1
  3404  0101' 1903               	skipnz
  3405  0102' 2800'              	goto	u1692
  3406  0103' 0790'              	addwf	___flmul@grs+2,f
  3407  0104'                    u1692:
  3408  0104' 080B'              	movf	??___flmul+3,w
  3409  0105' 1103               	clrz
  3410  0106' 1803               	skipnc
  3411  0107' 3E01               	addlw	1
  3412  0108' 1903               	skipnz
  3413  0109' 2800'              	goto	u1693
  3414  010A' 0791'              	addwf	___flmul@grs+3,f
  3415  010B'                    u1693:
  3416  010B'                    l1707:
  3417  010B' 0819'              	movf	___flmul@temp+1,w
  3418  010C' 0088'              	movwf	??___flmul
  3419  010D' 0189'              	clrf	??___flmul+1
  3420  010E' 018A'              	clrf	??___flmul+2
  3421  010F' 018B'              	clrf	??___flmul+3
  3422  0110' 0808'              	movf	??___flmul,w
  3423  0111' 0794'              	addwf	___flmul@prod,f
  3424  0112' 0809'              	movf	??___flmul+1,w
  3425  0113' 1103               	clrz
  3426  0114' 1803               	skipnc
  3427  0115' 3E01               	addlw	1
  3428  0116' 1903               	skipnz
  3429  0117' 2800'              	goto	u1701
  3430  0118' 0795'              	addwf	___flmul@prod+1,f
  3431  0119'                    u1701:
  3432  0119' 080A'              	movf	??___flmul+2,w
  3433  011A' 1103               	clrz
  3434  011B' 1803               	skipnc
  3435  011C' 3E01               	addlw	1
  3436  011D' 1903               	skipnz
  3437  011E' 2800'              	goto	u1702
  3438  011F' 0796'              	addwf	___flmul@prod+2,f
  3439  0120'                    u1702:
  3440  0120' 080B'              	movf	??___flmul+3,w
  3441  0121' 1103               	clrz
  3442  0122' 1803               	skipnc
  3443  0123' 3E01               	addlw	1
  3444  0124' 1903               	skipnz
  3445  0125' 2800'              	goto	u1703
  3446  0126' 0797'              	addwf	___flmul@prod+3,f
  3447  0127'                    u1703:
  3448  0127'                    l1709:
  3449  0127' 3008               	movlw	8
  3450  0128' 0088'              	movwf	??___flmul
  3451  0129'                    u1715:
  3452  0129' 1003               	clrc
  3453  012A' 0D8E'              	rlf	___flmul@grs,f
  3454  012B' 0D8F'              	rlf	___flmul@grs+1,f
  3455  012C' 0D90'              	rlf	___flmul@grs+2,f
  3456  012D' 0D91'              	rlf	___flmul@grs+3,f
  3457  012E' 0B88'              	decfsz	??___flmul,f
  3458  012F' 2800'              	goto	u1715
  3459  0130'                    l1711:
  3460  0130' 0801'              	movf	___flmul@b+1,w
  3461  0131' 0088'              	movwf	??___flmul
  3462  0132' 0808'              	movf	??___flmul,w
  3463  0133' 0080'              	movwf	__Umul8_16@multiplicand
  3464  0134' 0804'              	movf	___flmul@a,w
  3465  0135' 120A' 118A' 2000' 120A' 118A' 	fcall	__Umul8_16
  3466  013A' 0801'              	movf	?__Umul8_16+1,w
  3467  013B' 1283               	bcf	3,5	;RP0=0, select bank0
  3468  013C' 1303               	bcf	3,6	;RP1=0, select bank0
  3469  013D' 0099'              	movwf	___flmul@temp+1
  3470  013E' 0800'              	movf	?__Umul8_16,w
  3471  013F' 0098'              	movwf	___flmul@temp
  3472  0140'                    l1713:
  3473  0140' 0818'              	movf	___flmul@temp,w
  3474  0141' 0088'              	movwf	??___flmul
  3475  0142' 0819'              	movf	___flmul@temp+1,w
  3476  0143' 0089'              	movwf	??___flmul+1
  3477  0144' 018A'              	clrf	??___flmul+2
  3478  0145' 018B'              	clrf	??___flmul+3
  3479  0146' 0808'              	movf	??___flmul,w
  3480  0147' 078E'              	addwf	___flmul@grs,f
  3481  0148' 0809'              	movf	??___flmul+1,w
  3482  0149' 1103               	clrz
  3483  014A' 1803               	skipnc
  3484  014B' 3E01               	addlw	1
  3485  014C' 1903               	skipnz
  3486  014D' 2800'              	goto	u1721
  3487  014E' 078F'              	addwf	___flmul@grs+1,f
  3488  014F'                    u1721:
  3489  014F' 080A'              	movf	??___flmul+2,w
  3490  0150' 1103               	clrz
  3491  0151' 1803               	skipnc
  3492  0152' 3E01               	addlw	1
  3493  0153' 1903               	skipnz
  3494  0154' 2800'              	goto	u1722
  3495  0155' 0790'              	addwf	___flmul@grs+2,f
  3496  0156'                    u1722:
  3497  0156' 080B'              	movf	??___flmul+3,w
  3498  0157' 1103               	clrz
  3499  0158' 1803               	skipnc
  3500  0159' 3E01               	addlw	1
  3501  015A' 1903               	skipnz
  3502  015B' 2800'              	goto	u1723
  3503  015C' 0791'              	addwf	___flmul@grs+3,f
  3504  015D'                    u1723:
  3505  015D'                    l1715:
  3506  015D' 0800'              	movf	___flmul@b,w
  3507  015E' 0088'              	movwf	??___flmul
  3508  015F' 0808'              	movf	??___flmul,w
  3509  0160' 0080'              	movwf	__Umul8_16@multiplicand
  3510  0161' 0805'              	movf	___flmul@a+1,w
  3511  0162' 120A' 118A' 2000' 120A' 118A' 	fcall	__Umul8_16
  3512  0167' 0801'              	movf	?__Umul8_16+1,w
  3513  0168' 1283               	bcf	3,5	;RP0=0, select bank0
  3514  0169' 1303               	bcf	3,6	;RP1=0, select bank0
  3515  016A' 0099'              	movwf	___flmul@temp+1
  3516  016B' 0800'              	movf	?__Umul8_16,w
  3517  016C' 0098'              	movwf	___flmul@temp
  3518  016D'                    l1717:
  3519  016D' 0818'              	movf	___flmul@temp,w
  3520  016E' 0088'              	movwf	??___flmul
  3521  016F' 0819'              	movf	___flmul@temp+1,w
  3522  0170' 0089'              	movwf	??___flmul+1
  3523  0171' 018A'              	clrf	??___flmul+2
  3524  0172' 018B'              	clrf	??___flmul+3
  3525  0173' 0808'              	movf	??___flmul,w
  3526  0174' 078E'              	addwf	___flmul@grs,f
  3527  0175' 0809'              	movf	??___flmul+1,w
  3528  0176' 1103               	clrz
  3529  0177' 1803               	skipnc
  3530  0178' 3E01               	addlw	1
  3531  0179' 1903               	skipnz
  3532  017A' 2800'              	goto	u1731
  3533  017B' 078F'              	addwf	___flmul@grs+1,f
  3534  017C'                    u1731:
  3535  017C' 080A'              	movf	??___flmul+2,w
  3536  017D' 1103               	clrz
  3537  017E' 1803               	skipnc
  3538  017F' 3E01               	addlw	1
  3539  0180' 1903               	skipnz
  3540  0181' 2800'              	goto	u1732
  3541  0182' 0790'              	addwf	___flmul@grs+2,f
  3542  0183'                    u1732:
  3543  0183' 080B'              	movf	??___flmul+3,w
  3544  0184' 1103               	clrz
  3545  0185' 1803               	skipnc
  3546  0186' 3E01               	addlw	1
  3547  0187' 1903               	skipnz
  3548  0188' 2800'              	goto	u1733
  3549  0189' 0791'              	addwf	___flmul@grs+3,f
  3550  018A'                    u1733:
  3551  018A'                    l1719:
  3552  018A' 3008               	movlw	8
  3553  018B' 0088'              	movwf	??___flmul
  3554  018C'                    u1745:
  3555  018C' 1003               	clrc
  3556  018D' 0D8E'              	rlf	___flmul@grs,f
  3557  018E' 0D8F'              	rlf	___flmul@grs+1,f
  3558  018F' 0D90'              	rlf	___flmul@grs+2,f
  3559  0190' 0D91'              	rlf	___flmul@grs+3,f
  3560  0191' 0B88'              	decfsz	??___flmul,f
  3561  0192' 2800'              	goto	u1745
  3562  0193' 0800'              	movf	___flmul@b,w
  3563  0194' 0088'              	movwf	??___flmul
  3564  0195' 0808'              	movf	??___flmul,w
  3565  0196' 0080'              	movwf	__Umul8_16@multiplicand
  3566  0197' 0804'              	movf	___flmul@a,w
  3567  0198' 120A' 118A' 2000' 120A' 118A' 	fcall	__Umul8_16
  3568  019D' 0801'              	movf	?__Umul8_16+1,w
  3569  019E' 1283               	bcf	3,5	;RP0=0, select bank0
  3570  019F' 1303               	bcf	3,6	;RP1=0, select bank0
  3571  01A0' 0099'              	movwf	___flmul@temp+1
  3572  01A1' 0800'              	movf	?__Umul8_16,w
  3573  01A2' 0098'              	movwf	___flmul@temp
  3574  01A3'                    l1721:
  3575  01A3' 0818'              	movf	___flmul@temp,w
  3576  01A4' 0088'              	movwf	??___flmul
  3577  01A5' 0819'              	movf	___flmul@temp+1,w
  3578  01A6' 0089'              	movwf	??___flmul+1
  3579  01A7' 018A'              	clrf	??___flmul+2
  3580  01A8' 018B'              	clrf	??___flmul+3
  3581  01A9' 0808'              	movf	??___flmul,w
  3582  01AA' 078E'              	addwf	___flmul@grs,f
  3583  01AB' 0809'              	movf	??___flmul+1,w
  3584  01AC' 1103               	clrz
  3585  01AD' 1803               	skipnc
  3586  01AE' 3E01               	addlw	1
  3587  01AF' 1903               	skipnz
  3588  01B0' 2800'              	goto	u1751
  3589  01B1' 078F'              	addwf	___flmul@grs+1,f
  3590  01B2'                    u1751:
  3591  01B2' 080A'              	movf	??___flmul+2,w
  3592  01B3' 1103               	clrz
  3593  01B4' 1803               	skipnc
  3594  01B5' 3E01               	addlw	1
  3595  01B6' 1903               	skipnz
  3596  01B7' 2800'              	goto	u1752
  3597  01B8' 0790'              	addwf	___flmul@grs+2,f
  3598  01B9'                    u1752:
  3599  01B9' 080B'              	movf	??___flmul+3,w
  3600  01BA' 1103               	clrz
  3601  01BB' 1803               	skipnc
  3602  01BC' 3E01               	addlw	1
  3603  01BD' 1903               	skipnz
  3604  01BE' 2800'              	goto	u1753
  3605  01BF' 0791'              	addwf	___flmul@grs+3,f
  3606  01C0'                    u1753:
  3607  01C0'                    l1723:
  3608  01C0' 0801'              	movf	___flmul@b+1,w
  3609  01C1' 0088'              	movwf	??___flmul
  3610  01C2' 0808'              	movf	??___flmul,w
  3611  01C3' 0080'              	movwf	__Umul8_16@multiplicand
  3612  01C4' 0806'              	movf	___flmul@a+2,w
  3613  01C5' 120A' 118A' 2000' 120A' 118A' 	fcall	__Umul8_16
  3614  01CA' 0801'              	movf	?__Umul8_16+1,w
  3615  01CB' 1283               	bcf	3,5	;RP0=0, select bank0
  3616  01CC' 1303               	bcf	3,6	;RP1=0, select bank0
  3617  01CD' 0099'              	movwf	___flmul@temp+1
  3618  01CE' 0800'              	movf	?__Umul8_16,w
  3619  01CF' 0098'              	movwf	___flmul@temp
  3620  01D0' 0818'              	movf	___flmul@temp,w
  3621  01D1' 0088'              	movwf	??___flmul
  3622  01D2' 0819'              	movf	___flmul@temp+1,w
  3623  01D3' 0089'              	movwf	??___flmul+1
  3624  01D4' 018A'              	clrf	??___flmul+2
  3625  01D5' 018B'              	clrf	??___flmul+3
  3626  01D6' 0808'              	movf	??___flmul,w
  3627  01D7' 0794'              	addwf	___flmul@prod,f
  3628  01D8' 0809'              	movf	??___flmul+1,w
  3629  01D9' 1103               	clrz
  3630  01DA' 1803               	skipnc
  3631  01DB' 3E01               	addlw	1
  3632  01DC' 1903               	skipnz
  3633  01DD' 2800'              	goto	u1761
  3634  01DE' 0795'              	addwf	___flmul@prod+1,f
  3635  01DF'                    u1761:
  3636  01DF' 080A'              	movf	??___flmul+2,w
  3637  01E0' 1103               	clrz
  3638  01E1' 1803               	skipnc
  3639  01E2' 3E01               	addlw	1
  3640  01E3' 1903               	skipnz
  3641  01E4' 2800'              	goto	u1762
  3642  01E5' 0796'              	addwf	___flmul@prod+2,f
  3643  01E6'                    u1762:
  3644  01E6' 080B'              	movf	??___flmul+3,w
  3645  01E7' 1103               	clrz
  3646  01E8' 1803               	skipnc
  3647  01E9' 3E01               	addlw	1
  3648  01EA' 1903               	skipnz
  3649  01EB' 2800'              	goto	u1763
  3650  01EC' 0797'              	addwf	___flmul@prod+3,f
  3651  01ED'                    u1763:
  3652  01ED'                    l1725:
  3653  01ED' 0802'              	movf	___flmul@b+2,w
  3654  01EE' 0088'              	movwf	??___flmul
  3655  01EF' 0808'              	movf	??___flmul,w
  3656  01F0' 0080'              	movwf	__Umul8_16@multiplicand
  3657  01F1' 0805'              	movf	___flmul@a+1,w
  3658  01F2' 120A' 118A' 2000' 120A' 118A' 	fcall	__Umul8_16
  3659  01F7' 0801'              	movf	?__Umul8_16+1,w
  3660  01F8' 1283               	bcf	3,5	;RP0=0, select bank0
  3661  01F9' 1303               	bcf	3,6	;RP1=0, select bank0
  3662  01FA' 0099'              	movwf	___flmul@temp+1
  3663  01FB' 0800'              	movf	?__Umul8_16,w
  3664  01FC' 0098'              	movwf	___flmul@temp
  3665  01FD'                    l1727:
  3666  01FD' 0818'              	movf	___flmul@temp,w
  3667  01FE' 0088'              	movwf	??___flmul
  3668  01FF' 0819'              	movf	___flmul@temp+1,w
  3669  0200' 0089'              	movwf	??___flmul+1
  3670  0201' 018A'              	clrf	??___flmul+2
  3671  0202' 018B'              	clrf	??___flmul+3
  3672  0203' 0808'              	movf	??___flmul,w
  3673  0204' 0794'              	addwf	___flmul@prod,f
  3674  0205' 0809'              	movf	??___flmul+1,w
  3675  0206' 1103               	clrz
  3676  0207' 1803               	skipnc
  3677  0208' 3E01               	addlw	1
  3678  0209' 1903               	skipnz
  3679  020A' 2800'              	goto	u1771
  3680  020B' 0795'              	addwf	___flmul@prod+1,f
  3681  020C'                    u1771:
  3682  020C' 080A'              	movf	??___flmul+2,w
  3683  020D' 1103               	clrz
  3684  020E' 1803               	skipnc
  3685  020F' 3E01               	addlw	1
  3686  0210' 1903               	skipnz
  3687  0211' 2800'              	goto	u1772
  3688  0212' 0796'              	addwf	___flmul@prod+2,f
  3689  0213'                    u1772:
  3690  0213' 080B'              	movf	??___flmul+3,w
  3691  0214' 1103               	clrz
  3692  0215' 1803               	skipnc
  3693  0216' 3E01               	addlw	1
  3694  0217' 1903               	skipnz
  3695  0218' 2800'              	goto	u1773
  3696  0219' 0797'              	addwf	___flmul@prod+3,f
  3697  021A'                    u1773:
  3698  021A' 0802'              	movf	___flmul@b+2,w
  3699  021B' 0088'              	movwf	??___flmul
  3700  021C' 0808'              	movf	??___flmul,w
  3701  021D' 0080'              	movwf	__Umul8_16@multiplicand
  3702  021E' 0806'              	movf	___flmul@a+2,w
  3703  021F' 120A' 118A' 2000' 120A' 118A' 	fcall	__Umul8_16
  3704  0224' 0801'              	movf	?__Umul8_16+1,w
  3705  0225' 1283               	bcf	3,5	;RP0=0, select bank0
  3706  0226' 1303               	bcf	3,6	;RP1=0, select bank0
  3707  0227' 0099'              	movwf	___flmul@temp+1
  3708  0228' 0800'              	movf	?__Umul8_16,w
  3709  0229' 0098'              	movwf	___flmul@temp
  3710  022A'                    l1729:
  3711  022A' 0818'              	movf	___flmul@temp,w
  3712  022B' 0088'              	movwf	??___flmul
  3713  022C' 0819'              	movf	___flmul@temp+1,w
  3714  022D' 0089'              	movwf	??___flmul+1
  3715  022E' 018A'              	clrf	??___flmul+2
  3716  022F' 018B'              	clrf	??___flmul+3
  3717  0230' 3008               	movlw	8
  3718  0231'                    u1785:
  3719  0231' 1003               	clrc
  3720  0232' 0D88'              	rlf	??___flmul,f
  3721  0233' 0D89'              	rlf	??___flmul+1,f
  3722  0234' 0D8A'              	rlf	??___flmul+2,f
  3723  0235' 0D8B'              	rlf	??___flmul+3,f
  3724  0236'                    u1780:
  3725  0236' 3EFF               	addlw	-1
  3726  0237' 1D03               	skipz
  3727  0238' 2800'              	goto	u1785
  3728  0239' 0808'              	movf	??___flmul,w
  3729  023A' 0794'              	addwf	___flmul@prod,f
  3730  023B' 0809'              	movf	??___flmul+1,w
  3731  023C' 1103               	clrz
  3732  023D' 1803               	skipnc
  3733  023E' 3E01               	addlw	1
  3734  023F' 1903               	skipnz
  3735  0240' 2800'              	goto	u1791
  3736  0241' 0795'              	addwf	___flmul@prod+1,f
  3737  0242'                    u1791:
  3738  0242' 080A'              	movf	??___flmul+2,w
  3739  0243' 1103               	clrz
  3740  0244' 1803               	skipnc
  3741  0245' 3E01               	addlw	1
  3742  0246' 1903               	skipnz
  3743  0247' 2800'              	goto	u1792
  3744  0248' 0796'              	addwf	___flmul@prod+2,f
  3745  0249'                    u1792:
  3746  0249' 080B'              	movf	??___flmul+3,w
  3747  024A' 1103               	clrz
  3748  024B' 1803               	skipnc
  3749  024C' 3E01               	addlw	1
  3750  024D' 1903               	skipnz
  3751  024E' 2800'              	goto	u1793
  3752  024F' 0797'              	addwf	___flmul@prod+3,f
  3753  0250'                    u1793:
  3754  0250'                    l1731:
  3755  0250' 080E'              	movf	___flmul@grs,w
  3756  0251' 0088'              	movwf	??___flmul
  3757  0252' 080F'              	movf	___flmul@grs+1,w
  3758  0253' 0089'              	movwf	??___flmul+1
  3759  0254' 0810'              	movf	___flmul@grs+2,w
  3760  0255' 008A'              	movwf	??___flmul+2
  3761  0256' 0811'              	movf	___flmul@grs+3,w
  3762  0257' 008B'              	movwf	??___flmul+3
  3763  0258' 3018               	movlw	24
  3764  0259'                    u1805:
  3765  0259' 1003               	clrc
  3766  025A' 0C8B'              	rrf	??___flmul+3,f
  3767  025B' 0C8A'              	rrf	??___flmul+2,f
  3768  025C' 0C89'              	rrf	??___flmul+1,f
  3769  025D' 0C88'              	rrf	??___flmul,f
  3770  025E'                    u1800:
  3771  025E' 3EFF               	addlw	-1
  3772  025F' 1D03               	skipz
  3773  0260' 2800'              	goto	u1805
  3774  0261' 0808'              	movf	??___flmul,w
  3775  0262' 0794'              	addwf	___flmul@prod,f
  3776  0263' 0809'              	movf	??___flmul+1,w
  3777  0264' 1103               	clrz
  3778  0265' 1803               	skipnc
  3779  0266' 3E01               	addlw	1
  3780  0267' 1903               	skipnz
  3781  0268' 2800'              	goto	u1811
  3782  0269' 0795'              	addwf	___flmul@prod+1,f
  3783  026A'                    u1811:
  3784  026A' 080A'              	movf	??___flmul+2,w
  3785  026B' 1103               	clrz
  3786  026C' 1803               	skipnc
  3787  026D' 3E01               	addlw	1
  3788  026E' 1903               	skipnz
  3789  026F' 2800'              	goto	u1812
  3790  0270' 0796'              	addwf	___flmul@prod+2,f
  3791  0271'                    u1812:
  3792  0271' 080B'              	movf	??___flmul+3,w
  3793  0272' 1103               	clrz
  3794  0273' 1803               	skipnc
  3795  0274' 3E01               	addlw	1
  3796  0275' 1903               	skipnz
  3797  0276' 2800'              	goto	u1813
  3798  0277' 0797'              	addwf	___flmul@prod+3,f
  3799  0278'                    u1813:
  3800  0278'                    l1733:
  3801  0278' 3008               	movlw	8
  3802  0279' 0088'              	movwf	??___flmul
  3803  027A'                    u1825:
  3804  027A' 1003               	clrc
  3805  027B' 0D8E'              	rlf	___flmul@grs,f
  3806  027C' 0D8F'              	rlf	___flmul@grs+1,f
  3807  027D' 0D90'              	rlf	___flmul@grs+2,f
  3808  027E' 0D91'              	rlf	___flmul@grs+3,f
  3809  027F' 0B88'              	decfsz	??___flmul,f
  3810  0280' 2800'              	goto	u1825
  3811  0281'                    l1735:
  3812  0281' 0813'              	movf	___flmul@bexp,w
  3813  0282' 0712'              	addwf	___flmul@aexp,w
  3814  0283' 0088'              	movwf	??___flmul
  3815  0284' 0189'              	clrf	??___flmul+1
  3816  0285' 0D89'              	rlf	??___flmul+1,f
  3817  0286' 0808'              	movf	??___flmul,w
  3818  0287' 3E82               	addlw	130
  3819  0288' 0098'              	movwf	___flmul@temp
  3820  0289' 0809'              	movf	??___flmul+1,w
  3821  028A' 1803               	skipnc
  3822  028B' 3E01               	addlw	1
  3823  028C' 3EFF               	addlw	255
  3824  028D' 0099'              	movwf	___flmul@temp+1
  3825  028E' 2800'              	goto	l1747
  3826  028F'                    l1737:
  3827  028F' 3001               	movlw	1
  3828  0290' 0088'              	movwf	??___flmul
  3829  0291'                    u1835:
  3830  0291' 1003               	clrc
  3831  0292' 0D94'              	rlf	___flmul@prod,f
  3832  0293' 0D95'              	rlf	___flmul@prod+1,f
  3833  0294' 0D96'              	rlf	___flmul@prod+2,f
  3834  0295' 0D97'              	rlf	___flmul@prod+3,f
  3835  0296' 0B88'              	decfsz	??___flmul,f
  3836  0297' 2800'              	goto	u1835
  3837  0298'                    l1739:
  3838  0298' 1F91'              	btfss	___flmul@grs+3,7
  3839  0299' 2800'              	goto	u1841
  3840  029A' 2800'              	goto	u1840
  3841  029B'                    u1841:
  3842  029B' 2800'              	goto	l1743
  3843  029C'                    u1840:
  3844  029C'                    l1741:
  3845  029C' 1414'              	bsf	___flmul@prod,0
  3846  029D'                    l1743:
  3847  029D' 3001               	movlw	1
  3848  029E' 0088'              	movwf	??___flmul
  3849  029F'                    u1855:
  3850  029F' 1003               	clrc
  3851  02A0' 0D8E'              	rlf	___flmul@grs,f
  3852  02A1' 0D8F'              	rlf	___flmul@grs+1,f
  3853  02A2' 0D90'              	rlf	___flmul@grs+2,f
  3854  02A3' 0D91'              	rlf	___flmul@grs+3,f
  3855  02A4' 0B88'              	decfsz	??___flmul,f
  3856  02A5' 2800'              	goto	u1855
  3857  02A6'                    l1745:
  3858  02A6' 30FF               	movlw	255
  3859  02A7' 0798'              	addwf	___flmul@temp,f
  3860  02A8' 1803               	skipnc
  3861  02A9' 0A99'              	incf	___flmul@temp+1,f
  3862  02AA' 30FF               	movlw	255
  3863  02AB' 0799'              	addwf	___flmul@temp+1,f
  3864  02AC'                    l1747:
  3865  02AC' 1F96'              	btfss	___flmul@prod+2,7
  3866  02AD' 2800'              	goto	u1861
  3867  02AE' 2800'              	goto	u1860
  3868  02AF'                    u1861:
  3869  02AF' 2800'              	goto	l1737
  3870  02B0'                    u1860:
  3871  02B0'                    l1749:
  3872  02B0' 0192'              	clrf	___flmul@aexp
  3873  02B1'                    l1751:
  3874  02B1' 1F91'              	btfss	___flmul@grs+3,7
  3875  02B2' 2800'              	goto	u1871
  3876  02B3' 2800'              	goto	u1870
  3877  02B4'                    u1871:
  3878  02B4' 2800'              	goto	l1759
  3879  02B5'                    u1870:
  3880  02B5'                    l1753:
  3881  02B5' 30FF               	movlw	255
  3882  02B6' 050E'              	andwf	___flmul@grs,w
  3883  02B7' 0088'              	movwf	??___flmul
  3884  02B8' 30FF               	movlw	255
  3885  02B9' 050F'              	andwf	___flmul@grs+1,w
  3886  02BA' 0089'              	movwf	??___flmul+1
  3887  02BB' 30FF               	movlw	255
  3888  02BC' 0510'              	andwf	___flmul@grs+2,w
  3889  02BD' 008A'              	movwf	??___flmul+2
  3890  02BE' 307F               	movlw	127
  3891  02BF' 0511'              	andwf	___flmul@grs+3,w
  3892  02C0' 008B'              	movwf	??___flmul+3
  3893  02C1' 080B'              	movf	??___flmul+3,w
  3894  02C2' 040A'              	iorwf	??___flmul+2,w
  3895  02C3' 0409'              	iorwf	??___flmul+1,w
  3896  02C4' 0408'              	iorwf	??___flmul,w
  3897  02C5' 1903               	skipnz
  3898  02C6' 2800'              	goto	u1881
  3899  02C7' 2800'              	goto	u1880
  3900  02C8'                    u1881:
  3901  02C8' 2800'              	goto	l697
  3902  02C9'                    u1880:
  3903  02C9'                    l1755:
  3904  02C9' 0192'              	clrf	___flmul@aexp
  3905  02CA' 0A92'              	incf	___flmul@aexp,f
  3906  02CB' 2800'              	goto	l1759
  3907  02CC'                    l697:
  3908  02CC' 1C14'              	btfss	___flmul@prod,0
  3909  02CD' 2800'              	goto	u1891
  3910  02CE' 2800'              	goto	u1890
  3911  02CF'                    u1891:
  3912  02CF' 2800'              	goto	l1759
  3913  02D0'                    u1890:
  3914  02D0' 2800'              	goto	l1755
  3915  02D1'                    l1759:
  3916  02D1' 0812'              	movf	___flmul@aexp,w
  3917  02D2' 1903               	btfsc	3,2
  3918  02D3' 2800'              	goto	u1901
  3919  02D4' 2800'              	goto	u1900
  3920  02D5'                    u1901:
  3921  02D5' 2800'              	goto	l1769
  3922  02D6'                    u1900:
  3923  02D6'                    l1761:
  3924  02D6' 3001               	movlw	1
  3925  02D7' 0794'              	addwf	___flmul@prod,f
  3926  02D8' 3000               	movlw	0
  3927  02D9' 1803               	skipnc
  3928  02DA' 3001               	movlw	1
  3929  02DB' 0795'              	addwf	___flmul@prod+1,f
  3930  02DC' 3000               	movlw	0
  3931  02DD' 1803               	skipnc
  3932  02DE' 3001               	movlw	1
  3933  02DF' 0796'              	addwf	___flmul@prod+2,f
  3934  02E0' 3000               	movlw	0
  3935  02E1' 1803               	skipnc
  3936  02E2' 3001               	movlw	1
  3937  02E3' 0797'              	addwf	___flmul@prod+3,f
  3938  02E4'                    l1763:
  3939  02E4' 1C17'              	btfss	___flmul@prod+3,0
  3940  02E5' 2800'              	goto	u1911
  3941  02E6' 2800'              	goto	u1910
  3942  02E7'                    u1911:
  3943  02E7' 2800'              	goto	l1769
  3944  02E8'                    u1910:
  3945  02E8'                    l1765:
  3946  02E8' 0814'              	movf	___flmul@prod,w
  3947  02E9' 0088'              	movwf	??___flmul
  3948  02EA' 0815'              	movf	___flmul@prod+1,w
  3949  02EB' 0089'              	movwf	??___flmul+1
  3950  02EC' 0816'              	movf	___flmul@prod+2,w
  3951  02ED' 008A'              	movwf	??___flmul+2
  3952  02EE' 0817'              	movf	___flmul@prod+3,w
  3953  02EF' 008B'              	movwf	??___flmul+3
  3954  02F0' 3001               	movlw	1
  3955  02F1' 008C'              	movwf	??___flmul+4
  3956  02F2'                    u1925:
  3957  02F2' 0D0B'              	rlf	??___flmul+3,w
  3958  02F3' 0C8B'              	rrf	??___flmul+3,f
  3959  02F4' 0C8A'              	rrf	??___flmul+2,f
  3960  02F5' 0C89'              	rrf	??___flmul+1,f
  3961  02F6' 0C88'              	rrf	??___flmul,f
  3962  02F7'                    u1920:
  3963  02F7' 0B8C'              	decfsz	??___flmul+4,f
  3964  02F8' 2800'              	goto	u1925
  3965  02F9' 080B'              	movf	??___flmul+3,w
  3966  02FA' 0097'              	movwf	___flmul@prod+3
  3967  02FB' 080A'              	movf	??___flmul+2,w
  3968  02FC' 0096'              	movwf	___flmul@prod+2
  3969  02FD' 0809'              	movf	??___flmul+1,w
  3970  02FE' 0095'              	movwf	___flmul@prod+1
  3971  02FF' 0808'              	movf	??___flmul,w
  3972  0300' 0094'              	movwf	___flmul@prod
  3973  0301'                    l1767:
  3974  0301' 3001               	movlw	1
  3975  0302' 0798'              	addwf	___flmul@temp,f
  3976  0303' 1803               	skipnc
  3977  0304' 0A99'              	incf	___flmul@temp+1,f
  3978  0305' 3000               	movlw	0
  3979  0306' 0799'              	addwf	___flmul@temp+1,f
  3980  0307'                    l1769:
  3981  0307' 0819'              	movf	___flmul@temp+1,w
  3982  0308' 3A80               	xorlw	128
  3983  0309' 00FF               	movwf	btemp+1
  3984  030A' 3080               	movlw	128
  3985  030B' 027F               	subwf	btemp+1,w
  3986  030C' 1D03               	skipz
  3987  030D' 2800'              	goto	u1935
  3988  030E' 30FF               	movlw	255
  3989  030F' 0218'              	subwf	___flmul@temp,w
  3990  0310'                    u1935:
  3991  0310' 1C03               	skipc
  3992  0311' 2800'              	goto	u1931
  3993  0312' 2800'              	goto	u1930
  3994  0313'                    u1931:
  3995  0313' 2800'              	goto	l1773
  3996  0314'                    u1930:
  3997  0314'                    l1771:
  3998  0314' 307F               	movlw	127
  3999  0315' 1283               	bcf	3,5	;RP0=0, select bank0
  4000  0316' 1303               	bcf	3,6	;RP1=0, select bank0
  4001  0317' 0097'              	movwf	___flmul@prod+3
  4002  0318' 3080               	movlw	128
  4003  0319' 0096'              	movwf	___flmul@prod+2
  4004  031A' 3000               	movlw	0
  4005  031B' 0095'              	movwf	___flmul@prod+1
  4006  031C' 3000               	movlw	0
  4007  031D' 0094'              	movwf	___flmul@prod
  4008  031E' 2800'              	goto	l703
  4009  031F'                    l1773:
  4010  031F' 1283               	bcf	3,5	;RP0=0, select bank0
  4011  0320' 1303               	bcf	3,6	;RP1=0, select bank0
  4012  0321' 0819'              	movf	___flmul@temp+1,w
  4013  0322' 3A80               	xorlw	128
  4014  0323' 00FF               	movwf	btemp+1
  4015  0324' 3080               	movlw	128
  4016  0325' 027F               	subwf	btemp+1,w
  4017  0326' 1D03               	skipz
  4018  0327' 2800'              	goto	u1945
  4019  0328' 3001               	movlw	1
  4020  0329' 0218'              	subwf	___flmul@temp,w
  4021  032A'                    u1945:
  4022  032A' 1803               	skipnc
  4023  032B' 2800'              	goto	u1941
  4024  032C' 2800'              	goto	u1940
  4025  032D'                    u1941:
  4026  032D' 2800'              	goto	l1779
  4027  032E'                    u1940:
  4028  032E'                    l1775:
  4029  032E' 3000               	movlw	0
  4030  032F' 1283               	bcf	3,5	;RP0=0, select bank0
  4031  0330' 1303               	bcf	3,6	;RP1=0, select bank0
  4032  0331' 0097'              	movwf	___flmul@prod+3
  4033  0332' 3000               	movlw	0
  4034  0333' 0096'              	movwf	___flmul@prod+2
  4035  0334' 3000               	movlw	0
  4036  0335' 0095'              	movwf	___flmul@prod+1
  4037  0336' 3000               	movlw	0
  4038  0337' 0094'              	movwf	___flmul@prod
  4039  0338'                    l1777:
  4040  0338' 018D'              	clrf	___flmul@sign
  4041  0339' 2800'              	goto	l703
  4042  033A'                    l1779:
  4043  033A' 1283               	bcf	3,5	;RP0=0, select bank0
  4044  033B' 1303               	bcf	3,6	;RP1=0, select bank0
  4045  033C' 0818'              	movf	___flmul@temp,w
  4046  033D' 0088'              	movwf	??___flmul
  4047  033E' 0808'              	movf	??___flmul,w
  4048  033F' 0093'              	movwf	___flmul@bexp
  4049  0340' 30FF               	movlw	255
  4050  0341' 0594'              	andwf	___flmul@prod,f
  4051  0342' 30FF               	movlw	255
  4052  0343' 0595'              	andwf	___flmul@prod+1,f
  4053  0344' 307F               	movlw	127
  4054  0345' 0596'              	andwf	___flmul@prod+2,f
  4055  0346' 3000               	movlw	0
  4056  0347' 0597'              	andwf	___flmul@prod+3,f
  4057  0348'                    l1781:
  4058  0348' 1C13'              	btfss	___flmul@bexp,0
  4059  0349' 2800'              	goto	u1951
  4060  034A' 2800'              	goto	u1950
  4061  034B'                    u1951:
  4062  034B' 2800'              	goto	l1785
  4063  034C'                    u1950:
  4064  034C'                    l1783:
  4065  034C' 1796'              	bsf	___flmul@prod+2,7
  4066  034D'                    l1785:
  4067  034D' 0813'              	movf	___flmul@bexp,w
  4068  034E' 0088'              	movwf	??___flmul
  4069  034F' 1003               	clrc
  4070  0350' 0C08'              	rrf	??___flmul,w
  4071  0351' 0089'              	movwf	??___flmul+1
  4072  0352' 0809'              	movf	??___flmul+1,w
  4073  0353' 0097'              	movwf	___flmul@prod+3
  4074  0354'                    l703:
  4075  0354' 080D'              	movf	___flmul@sign,w
  4076  0355' 0088'              	movwf	??___flmul
  4077  0356' 0808'              	movf	??___flmul,w
  4078  0357' 0497'              	iorwf	___flmul@prod+3,f
  4079  0358'                    l1787:
  4080  0358' 0817'              	movf	___flmul@prod+3,w
  4081  0359' 0083'              	movwf	?___flmul+3
  4082  035A' 0816'              	movf	___flmul@prod+2,w
  4083  035B' 0082'              	movwf	?___flmul+2
  4084  035C' 0815'              	movf	___flmul@prod+1,w
  4085  035D' 0081'              	movwf	?___flmul+1
  4086  035E' 0814'              	movf	___flmul@prod,w
  4087  035F' 0080'              	movwf	?___flmul
  4088  0360'                    l691:
  4089  0360' 0008               	return
  4090  0361'                    __end_of___flmul:
  4091                           
  4092                           	psect	text22
  4093  0000'                    __ptext22:	
  4094 ;; *************** function __Umul8_16 *****************
  4095 ;; Defined at:
  4096 ;;		line 4 in file "C:\Program Files\Microchip\xc8\v2.31\pic\sources\c90\common\Umul8_16.c"
  4097 ;; Parameters:    Size  Location     Type
  4098 ;;  multiplier      1    wreg     unsigned char 
  4099 ;;  multiplicand    1    0[COMMON] unsigned char 
  4100 ;; Auto vars:     Size  Location     Type
  4101 ;;  multiplier      1    8[COMMON] unsigned char 
  4102 ;;  word_mpld       2    6[COMMON] unsigned int 
  4103 ;;  product         2    4[COMMON] unsigned int 
  4104 ;; Return value:  Size  Location     Type
  4105 ;;                  2    0[COMMON] unsigned int 
  4106 ;; Registers used:
  4107 ;;		wreg, status,2, status,0
  4108 ;; Tracked objects:
  4109 ;;		On entry : 0/0
  4110 ;;		On exit  : 0/0
  4111 ;;		Unchanged: 0/0
  4112 ;; Data sizes:     COMMON   BANK0   BANK1   BANK3   BANK2
  4113 ;;      Params:         2       0       0       0       0
  4114 ;;      Locals:         5       0       0       0       0
  4115 ;;      Temps:          2       0       0       0       0
  4116 ;;      Totals:         9       0       0       0       0
  4117 ;;Total ram usage:        9 bytes
  4118 ;; Hardware stack levels used:    1
  4119 ;; This function calls:
  4120 ;;		Nothing
  4121 ;; This function is called by:
  4122 ;;		___flmul
  4123 ;; This function uses a non-reentrant model
  4124 ;;
  4125                           
  4126                           
  4127                           ;psect for function __Umul8_16
  4128  0000'                    __Umul8_16:
  4129                           
  4130                           ;incstack = 0
  4131                           ; Regs used in __Umul8_16: [wreg+status,2+status,0]
  4132                           ;__Umul8_16@multiplier stored from wreg
  4133  0000' 0088'              	movwf	__Umul8_16@multiplier
  4134  0001'                    l1429:
  4135  0001' 0184'              	clrf	__Umul8_16@product
  4136  0002' 0185'              	clrf	__Umul8_16@product+1
  4137  0003'                    l1431:
  4138  0003' 0800'              	movf	__Umul8_16@multiplicand,w
  4139  0004' 0082'              	movwf	??__Umul8_16
  4140  0005' 0183'              	clrf	??__Umul8_16+1
  4141  0006' 0802'              	movf	??__Umul8_16,w
  4142  0007' 0086'              	movwf	__Umul8_16@word_mpld
  4143  0008' 0803'              	movf	??__Umul8_16+1,w
  4144  0009' 0087'              	movwf	__Umul8_16@word_mpld+1
  4145  000A'                    l1433:
  4146  000A' 1C08'              	btfss	__Umul8_16@multiplier,0
  4147  000B' 2800'              	goto	u1171
  4148  000C' 2800'              	goto	u1170
  4149  000D'                    u1171:
  4150  000D' 2800'              	goto	l710
  4151  000E'                    u1170:
  4152  000E'                    l1435:
  4153  000E' 0806'              	movf	__Umul8_16@word_mpld,w
  4154  000F' 0784'              	addwf	__Umul8_16@product,f
  4155  0010' 1803               	skipnc
  4156  0011' 0A85'              	incf	__Umul8_16@product+1,f
  4157  0012' 0807'              	movf	__Umul8_16@word_mpld+1,w
  4158  0013' 0785'              	addwf	__Umul8_16@product+1,f
  4159  0014'                    l710:
  4160  0014' 3001               	movlw	1
  4161  0015'                    u1185:
  4162  0015' 1003               	clrc
  4163  0016' 0D86'              	rlf	__Umul8_16@word_mpld,f
  4164  0017' 0D87'              	rlf	__Umul8_16@word_mpld+1,f
  4165  0018' 3EFF               	addlw	-1
  4166  0019' 1D03               	skipz
  4167  001A' 2800'              	goto	u1185
  4168  001B' 1003               	clrc
  4169  001C' 0C88'              	rrf	__Umul8_16@multiplier,f
  4170  001D'                    l1437:
  4171  001D' 0808'              	movf	__Umul8_16@multiplier,w
  4172  001E' 1D03               	btfss	3,2
  4173  001F' 2800'              	goto	u1191
  4174  0020' 2800'              	goto	u1190
  4175  0021'                    u1191:
  4176  0021' 2800'              	goto	l1433
  4177  0022'                    u1190:
  4178  0022'                    l1439:
  4179  0022' 0805'              	movf	__Umul8_16@product+1,w
  4180  0023' 0081'              	movwf	?__Umul8_16+1
  4181  0024' 0804'              	movf	__Umul8_16@product,w
  4182  0025' 0080'              	movwf	?__Umul8_16
  4183  0026'                    l712:
  4184  0026' 0008               	return
  4185  0027'                    __end_of__Umul8_16:
  4186                           
  4187                           	psect	text23
  4188  0000'                    __ptext23:	
  4189 ;; *************** function ___fldiv *****************
  4190 ;; Defined at:
  4191 ;;		line 8 in file "C:\Program Files\Microchip\xc8\v2.31\pic\sources\c90\common\sprcdiv.c"
  4192 ;; Parameters:    Size  Location     Type
  4193 ;;  a               4   26[BANK0 ] unsigned int 
  4194 ;;  b               4   30[BANK0 ] unsigned int 
  4195 ;; Auto vars:     Size  Location     Type
  4196 ;;  grs             4   46[BANK0 ] unsigned long 
  4197 ;;  rem             4   39[BANK0 ] unsigned long 
  4198 ;;  new_exp         2   44[BANK0 ] int 
  4199 ;;  aexp            1   51[BANK0 ] unsigned char 
  4200 ;;  bexp            1   50[BANK0 ] unsigned char 
  4201 ;;  sign            1   43[BANK0 ] unsigned char 
  4202 ;; Return value:  Size  Location     Type
  4203 ;;                  4   26[BANK0 ] unsigned char 
  4204 ;; Registers used:
  4205 ;;		wreg, status,2, status,0, btemp+1
  4206 ;; Tracked objects:
  4207 ;;		On entry : 0/0
  4208 ;;		On exit  : 0/0
  4209 ;;		Unchanged: 0/0
  4210 ;; Data sizes:     COMMON   BANK0   BANK1   BANK3   BANK2
  4211 ;;      Params:         0       8       0       0       0
  4212 ;;      Locals:         0      13       0       0       0
  4213 ;;      Temps:          0       5       0       0       0
  4214 ;;      Totals:         0      26       0       0       0
  4215 ;;Total ram usage:       26 bytes
  4216 ;; Hardware stack levels used:    1
  4217 ;; This function calls:
  4218 ;;		Nothing
  4219 ;; This function is called by:
  4220 ;;		_ADC_1
  4221 ;;		_ADC_2
  4222 ;; This function uses a non-reentrant model
  4223 ;;
  4224                           
  4225                           
  4226                           ;psect for function ___fldiv
  4227  0000'                    ___fldiv:
  4228  0000'                    l1509:	
  4229                           ;incstack = 0
  4230                           ; Regs used in ___fldiv: [wreg+status,2+status,0+btemp+1]
  4231                           
  4232  0000' 1283               	bcf	3,5	;RP0=0, select bank0
  4233  0001' 1303               	bcf	3,6	;RP1=0, select bank0
  4234  0002' 0821'              	movf	___fldiv@b+3,w
  4235  0003' 3980               	andlw	128
  4236  0004' 00A2'              	movwf	??___fldiv
  4237  0005' 0822'              	movf	??___fldiv,w
  4238  0006' 00AB'              	movwf	___fldiv@sign
  4239  0007'                    l1511:
  4240  0007' 0821'              	movf	___fldiv@b+3,w
  4241  0008' 00A2'              	movwf	??___fldiv
  4242  0009' 0722'              	addwf	??___fldiv,w
  4243  000A' 00A3'              	movwf	??___fldiv+1
  4244  000B' 0823'              	movf	??___fldiv+1,w
  4245  000C' 00B2'              	movwf	___fldiv@bexp
  4246  000D'                    l1513:
  4247  000D' 1FA0'              	btfss	___fldiv@b+2,7
  4248  000E' 2800'              	goto	u1301
  4249  000F' 2800'              	goto	u1300
  4250  0010'                    u1301:
  4251  0010' 2800'              	goto	l1517
  4252  0011'                    u1300:
  4253  0011'                    l1515:
  4254  0011' 1432'              	bsf	___fldiv@bexp,0
  4255  0012'                    l1517:
  4256  0012' 0832'              	movf	___fldiv@bexp,w
  4257  0013' 1903               	btfsc	3,2
  4258  0014' 2800'              	goto	u1311
  4259  0015' 2800'              	goto	u1310
  4260  0016'                    u1311:
  4261  0016' 2800'              	goto	l1527
  4262  0017'                    u1310:
  4263  0017'                    l1519:
  4264  0017' 0A32'              	incf	___fldiv@bexp,w
  4265  0018' 1D03               	btfss	3,2
  4266  0019' 2800'              	goto	u1321
  4267  001A' 2800'              	goto	u1320
  4268  001B'                    u1321:
  4269  001B' 2800'              	goto	l1523
  4270  001C'                    u1320:
  4271  001C'                    l1521:
  4272  001C' 3000               	movlw	0
  4273  001D' 00A1'              	movwf	___fldiv@b+3
  4274  001E' 3000               	movlw	0
  4275  001F' 00A0'              	movwf	___fldiv@b+2
  4276  0020' 3000               	movlw	0
  4277  0021' 009F'              	movwf	___fldiv@b+1
  4278  0022' 3000               	movlw	0
  4279  0023' 009E'              	movwf	___fldiv@b
  4280  0024'                    l1523:
  4281  0024' 17A0'              	bsf	___fldiv@b+2,7
  4282  0025'                    l1525:
  4283  0025' 01A1'              	clrf	___fldiv@b+3
  4284  0026' 2800'              	goto	l1529
  4285  0027'                    l1527:
  4286  0027' 3000               	movlw	0
  4287  0028' 00A1'              	movwf	___fldiv@b+3
  4288  0029' 3000               	movlw	0
  4289  002A' 00A0'              	movwf	___fldiv@b+2
  4290  002B' 3000               	movlw	0
  4291  002C' 009F'              	movwf	___fldiv@b+1
  4292  002D' 3000               	movlw	0
  4293  002E' 009E'              	movwf	___fldiv@b
  4294  002F'                    l1529:
  4295  002F' 081D'              	movf	___fldiv@a+3,w
  4296  0030' 3980               	andlw	128
  4297  0031' 00A2'              	movwf	??___fldiv
  4298  0032' 0822'              	movf	??___fldiv,w
  4299  0033' 06AB'              	xorwf	___fldiv@sign,f
  4300  0034'                    l1531:
  4301  0034' 081D'              	movf	___fldiv@a+3,w
  4302  0035' 00A2'              	movwf	??___fldiv
  4303  0036' 0722'              	addwf	??___fldiv,w
  4304  0037' 00A3'              	movwf	??___fldiv+1
  4305  0038' 0823'              	movf	??___fldiv+1,w
  4306  0039' 00B3'              	movwf	___fldiv@aexp
  4307  003A'                    l1533:
  4308  003A' 1F9C'              	btfss	___fldiv@a+2,7
  4309  003B' 2800'              	goto	u1331
  4310  003C' 2800'              	goto	u1330
  4311  003D'                    u1331:
  4312  003D' 2800'              	goto	l1537
  4313  003E'                    u1330:
  4314  003E'                    l1535:
  4315  003E' 1433'              	bsf	___fldiv@aexp,0
  4316  003F'                    l1537:
  4317  003F' 0833'              	movf	___fldiv@aexp,w
  4318  0040' 1903               	btfsc	3,2
  4319  0041' 2800'              	goto	u1341
  4320  0042' 2800'              	goto	u1340
  4321  0043'                    u1341:
  4322  0043' 2800'              	goto	l1547
  4323  0044'                    u1340:
  4324  0044'                    l1539:
  4325  0044' 0A33'              	incf	___fldiv@aexp,w
  4326  0045' 1D03               	btfss	3,2
  4327  0046' 2800'              	goto	u1351
  4328  0047' 2800'              	goto	u1350
  4329  0048'                    u1351:
  4330  0048' 2800'              	goto	l1543
  4331  0049'                    u1350:
  4332  0049'                    l1541:
  4333  0049' 3000               	movlw	0
  4334  004A' 009D'              	movwf	___fldiv@a+3
  4335  004B' 3000               	movlw	0
  4336  004C' 009C'              	movwf	___fldiv@a+2
  4337  004D' 3000               	movlw	0
  4338  004E' 009B'              	movwf	___fldiv@a+1
  4339  004F' 3000               	movlw	0
  4340  0050' 009A'              	movwf	___fldiv@a
  4341  0051'                    l1543:
  4342  0051' 179C'              	bsf	___fldiv@a+2,7
  4343  0052'                    l1545:
  4344  0052' 019D'              	clrf	___fldiv@a+3
  4345  0053' 2800'              	goto	l651
  4346  0054'                    l1547:
  4347  0054' 3000               	movlw	0
  4348  0055' 009D'              	movwf	___fldiv@a+3
  4349  0056' 3000               	movlw	0
  4350  0057' 009C'              	movwf	___fldiv@a+2
  4351  0058' 3000               	movlw	0
  4352  0059' 009B'              	movwf	___fldiv@a+1
  4353  005A' 3000               	movlw	0
  4354  005B' 009A'              	movwf	___fldiv@a
  4355  005C'                    l651:
  4356  005C' 081D'              	movf	___fldiv@a+3,w
  4357  005D' 041C'              	iorwf	___fldiv@a+2,w
  4358  005E' 041B'              	iorwf	___fldiv@a+1,w
  4359  005F' 041A'              	iorwf	___fldiv@a,w
  4360  0060' 1D03               	skipz
  4361  0061' 2800'              	goto	u1361
  4362  0062' 2800'              	goto	u1360
  4363  0063'                    u1361:
  4364  0063' 2800'              	goto	l1557
  4365  0064'                    u1360:
  4366  0064'                    l1549:
  4367  0064' 3000               	movlw	0
  4368  0065' 00A1'              	movwf	___fldiv@b+3
  4369  0066' 3000               	movlw	0
  4370  0067' 00A0'              	movwf	___fldiv@b+2
  4371  0068' 3000               	movlw	0
  4372  0069' 009F'              	movwf	___fldiv@b+1
  4373  006A' 3000               	movlw	0
  4374  006B' 009E'              	movwf	___fldiv@b
  4375  006C' 3080               	movlw	128
  4376  006D' 04A0'              	iorwf	___fldiv@b+2,f
  4377  006E' 307F               	movlw	127
  4378  006F' 04A1'              	iorwf	___fldiv@b+3,f
  4379  0070'                    l1551:
  4380  0070' 082B'              	movf	___fldiv@sign,w
  4381  0071' 00A2'              	movwf	??___fldiv
  4382  0072' 0822'              	movf	??___fldiv,w
  4383  0073' 04A1'              	iorwf	___fldiv@b+3,f
  4384  0074'                    l1553:
  4385  0074' 0821'              	movf	___fldiv@b+3,w
  4386  0075' 009D'              	movwf	?___fldiv+3
  4387  0076' 0820'              	movf	___fldiv@b+2,w
  4388  0077' 009C'              	movwf	?___fldiv+2
  4389  0078' 081F'              	movf	___fldiv@b+1,w
  4390  0079' 009B'              	movwf	?___fldiv+1
  4391  007A' 081E'              	movf	___fldiv@b,w
  4392  007B' 009A'              	movwf	?___fldiv
  4393  007C' 2800'              	goto	l653
  4394  007D'                    l1557:
  4395  007D' 0832'              	movf	___fldiv@bexp,w
  4396  007E' 1D03               	btfss	3,2
  4397  007F' 2800'              	goto	u1371
  4398  0080' 2800'              	goto	u1370
  4399  0081'                    u1371:
  4400  0081' 2800'              	goto	l1563
  4401  0082'                    u1370:
  4402  0082'                    l1559:
  4403  0082' 3000               	movlw	0
  4404  0083' 009D'              	movwf	?___fldiv+3
  4405  0084' 3000               	movlw	0
  4406  0085' 009C'              	movwf	?___fldiv+2
  4407  0086' 3000               	movlw	0
  4408  0087' 009B'              	movwf	?___fldiv+1
  4409  0088' 3000               	movlw	0
  4410  0089' 009A'              	movwf	?___fldiv
  4411  008A' 2800'              	goto	l653
  4412  008B'                    l1563:
  4413  008B' 0832'              	movf	___fldiv@bexp,w
  4414  008C' 00A2'              	movwf	??___fldiv
  4415  008D' 01A3'              	clrf	??___fldiv+1
  4416  008E' 0823'              	movf	??___fldiv+1,w
  4417  008F' 00A5'              	movwf	??___fldiv+3
  4418  0090' 0833'              	movf	___fldiv@aexp,w
  4419  0091' 0222'              	subwf	??___fldiv,w
  4420  0092' 00A4'              	movwf	??___fldiv+2
  4421  0093' 1C03               	skipc
  4422  0094' 03A5'              	decf	??___fldiv+3,f
  4423  0095' 0824'              	movf	??___fldiv+2,w
  4424  0096' 3E7F               	addlw	127
  4425  0097' 00AC'              	movwf	___fldiv@new_exp
  4426  0098' 0825'              	movf	??___fldiv+3,w
  4427  0099' 1803               	skipnc
  4428  009A' 3E01               	addlw	1
  4429  009B' 3E00               	addlw	0
  4430  009C' 00AD'              	movwf	___fldiv@new_exp+1
  4431  009D'                    l1565:
  4432  009D' 0821'              	movf	___fldiv@b+3,w
  4433  009E' 00AA'              	movwf	___fldiv@rem+3
  4434  009F' 0820'              	movf	___fldiv@b+2,w
  4435  00A0' 00A9'              	movwf	___fldiv@rem+2
  4436  00A1' 081F'              	movf	___fldiv@b+1,w
  4437  00A2' 00A8'              	movwf	___fldiv@rem+1
  4438  00A3' 081E'              	movf	___fldiv@b,w
  4439  00A4' 00A7'              	movwf	___fldiv@rem
  4440  00A5'                    l1567:
  4441  00A5' 3000               	movlw	0
  4442  00A6' 00A1'              	movwf	___fldiv@b+3
  4443  00A7' 3000               	movlw	0
  4444  00A8' 00A0'              	movwf	___fldiv@b+2
  4445  00A9' 3000               	movlw	0
  4446  00AA' 009F'              	movwf	___fldiv@b+1
  4447  00AB' 3000               	movlw	0
  4448  00AC' 009E'              	movwf	___fldiv@b
  4449  00AD'                    l1569:
  4450  00AD' 3000               	movlw	0
  4451  00AE' 00B1'              	movwf	___fldiv@grs+3
  4452  00AF' 3000               	movlw	0
  4453  00B0' 00B0'              	movwf	___fldiv@grs+2
  4454  00B1' 3000               	movlw	0
  4455  00B2' 00AF'              	movwf	___fldiv@grs+1
  4456  00B3' 3000               	movlw	0
  4457  00B4' 00AE'              	movwf	___fldiv@grs
  4458  00B5'                    l1571:
  4459  00B5' 01B3'              	clrf	___fldiv@aexp
  4460  00B6' 2800'              	goto	l1591
  4461  00B7'                    l1573:
  4462  00B7' 0833'              	movf	___fldiv@aexp,w
  4463  00B8' 1903               	btfsc	3,2
  4464  00B9' 2800'              	goto	u1381
  4465  00BA' 2800'              	goto	u1380
  4466  00BB'                    u1381:
  4467  00BB' 2800'              	goto	l1583
  4468  00BC'                    u1380:
  4469  00BC'                    l1575:
  4470  00BC' 3001               	movlw	1
  4471  00BD' 00A2'              	movwf	??___fldiv
  4472  00BE'                    u1395:
  4473  00BE' 1003               	clrc
  4474  00BF' 0DA7'              	rlf	___fldiv@rem,f
  4475  00C0' 0DA8'              	rlf	___fldiv@rem+1,f
  4476  00C1' 0DA9'              	rlf	___fldiv@rem+2,f
  4477  00C2' 0DAA'              	rlf	___fldiv@rem+3,f
  4478  00C3' 0BA2'              	decfsz	??___fldiv,f
  4479  00C4' 2800'              	goto	u1395
  4480  00C5' 3001               	movlw	1
  4481  00C6' 00A2'              	movwf	??___fldiv
  4482  00C7'                    u1405:
  4483  00C7' 1003               	clrc
  4484  00C8' 0D9E'              	rlf	___fldiv@b,f
  4485  00C9' 0D9F'              	rlf	___fldiv@b+1,f
  4486  00CA' 0DA0'              	rlf	___fldiv@b+2,f
  4487  00CB' 0DA1'              	rlf	___fldiv@b+3,f
  4488  00CC' 0BA2'              	decfsz	??___fldiv,f
  4489  00CD' 2800'              	goto	u1405
  4490  00CE'                    l1577:
  4491  00CE' 1FB1'              	btfss	___fldiv@grs+3,7
  4492  00CF' 2800'              	goto	u1411
  4493  00D0' 2800'              	goto	u1410
  4494  00D1'                    u1411:
  4495  00D1' 2800'              	goto	l1581
  4496  00D2'                    u1410:
  4497  00D2'                    l1579:
  4498  00D2' 141E'              	bsf	___fldiv@b,0
  4499  00D3'                    l1581:
  4500  00D3' 3001               	movlw	1
  4501  00D4' 00A2'              	movwf	??___fldiv
  4502  00D5'                    u1425:
  4503  00D5' 1003               	clrc
  4504  00D6' 0DAE'              	rlf	___fldiv@grs,f
  4505  00D7' 0DAF'              	rlf	___fldiv@grs+1,f
  4506  00D8' 0DB0'              	rlf	___fldiv@grs+2,f
  4507  00D9' 0DB1'              	rlf	___fldiv@grs+3,f
  4508  00DA' 0BA2'              	decfsz	??___fldiv,f
  4509  00DB' 2800'              	goto	u1425
  4510  00DC'                    l1583:
  4511  00DC' 081D'              	movf	___fldiv@a+3,w
  4512  00DD' 022A'              	subwf	___fldiv@rem+3,w
  4513  00DE' 1D03               	skipz
  4514  00DF' 2800'              	goto	u1435
  4515  00E0' 081C'              	movf	___fldiv@a+2,w
  4516  00E1' 0229'              	subwf	___fldiv@rem+2,w
  4517  00E2' 1D03               	skipz
  4518  00E3' 2800'              	goto	u1435
  4519  00E4' 081B'              	movf	___fldiv@a+1,w
  4520  00E5' 0228'              	subwf	___fldiv@rem+1,w
  4521  00E6' 1D03               	skipz
  4522  00E7' 2800'              	goto	u1435
  4523  00E8' 081A'              	movf	___fldiv@a,w
  4524  00E9' 0227'              	subwf	___fldiv@rem,w
  4525  00EA'                    u1435:
  4526  00EA' 1C03               	skipc
  4527  00EB' 2800'              	goto	u1431
  4528  00EC' 2800'              	goto	u1430
  4529  00ED'                    u1431:
  4530  00ED' 2800'              	goto	l1589
  4531  00EE'                    u1430:
  4532  00EE'                    l1585:
  4533  00EE' 1731'              	bsf	___fldiv@grs+3,6
  4534  00EF'                    l1587:
  4535  00EF' 081A'              	movf	___fldiv@a,w
  4536  00F0' 02A7'              	subwf	___fldiv@rem,f
  4537  00F1' 081B'              	movf	___fldiv@a+1,w
  4538  00F2' 1C03               	skipc
  4539  00F3' 0F1B'              	incfsz	___fldiv@a+1,w
  4540  00F4' 02A8'              	subwf	___fldiv@rem+1,f
  4541  00F5' 081C'              	movf	___fldiv@a+2,w
  4542  00F6' 1C03               	skipc
  4543  00F7' 0F1C'              	incfsz	___fldiv@a+2,w
  4544  00F8' 02A9'              	subwf	___fldiv@rem+2,f
  4545  00F9' 081D'              	movf	___fldiv@a+3,w
  4546  00FA' 1C03               	skipc
  4547  00FB' 0F1D'              	incfsz	___fldiv@a+3,w
  4548  00FC' 02AA'              	subwf	___fldiv@rem+3,f
  4549  00FD'                    l1589:
  4550  00FD' 3001               	movlw	1
  4551  00FE' 00A2'              	movwf	??___fldiv
  4552  00FF' 0822'              	movf	??___fldiv,w
  4553  0100' 07B3'              	addwf	___fldiv@aexp,f
  4554  0101'                    l1591:
  4555  0101' 301A               	movlw	26
  4556  0102' 0233'              	subwf	___fldiv@aexp,w
  4557  0103' 1C03               	skipc
  4558  0104' 2800'              	goto	u1441
  4559  0105' 2800'              	goto	u1440
  4560  0106'                    u1441:
  4561  0106' 2800'              	goto	l1573
  4562  0107'                    u1440:
  4563  0107'                    l1593:
  4564  0107' 082A'              	movf	___fldiv@rem+3,w
  4565  0108' 0429'              	iorwf	___fldiv@rem+2,w
  4566  0109' 0428'              	iorwf	___fldiv@rem+1,w
  4567  010A' 0427'              	iorwf	___fldiv@rem,w
  4568  010B' 1903               	skipnz
  4569  010C' 2800'              	goto	u1451
  4570  010D' 2800'              	goto	u1450
  4571  010E'                    u1451:
  4572  010E' 2800'              	goto	l1607
  4573  010F'                    u1450:
  4574  010F'                    l1595:
  4575  010F' 142E'              	bsf	___fldiv@grs,0
  4576  0110' 2800'              	goto	l1607
  4577  0111'                    l1597:
  4578  0111' 3001               	movlw	1
  4579  0112' 00A2'              	movwf	??___fldiv
  4580  0113'                    u1465:
  4581  0113' 1003               	clrc
  4582  0114' 0D9E'              	rlf	___fldiv@b,f
  4583  0115' 0D9F'              	rlf	___fldiv@b+1,f
  4584  0116' 0DA0'              	rlf	___fldiv@b+2,f
  4585  0117' 0DA1'              	rlf	___fldiv@b+3,f
  4586  0118' 0BA2'              	decfsz	??___fldiv,f
  4587  0119' 2800'              	goto	u1465
  4588  011A'                    l1599:
  4589  011A' 1FB1'              	btfss	___fldiv@grs+3,7
  4590  011B' 2800'              	goto	u1471
  4591  011C' 2800'              	goto	u1470
  4592  011D'                    u1471:
  4593  011D' 2800'              	goto	l1603
  4594  011E'                    u1470:
  4595  011E'                    l1601:
  4596  011E' 141E'              	bsf	___fldiv@b,0
  4597  011F'                    l1603:
  4598  011F' 3001               	movlw	1
  4599  0120' 00A2'              	movwf	??___fldiv
  4600  0121'                    u1485:
  4601  0121' 1003               	clrc
  4602  0122' 0DAE'              	rlf	___fldiv@grs,f
  4603  0123' 0DAF'              	rlf	___fldiv@grs+1,f
  4604  0124' 0DB0'              	rlf	___fldiv@grs+2,f
  4605  0125' 0DB1'              	rlf	___fldiv@grs+3,f
  4606  0126' 0BA2'              	decfsz	??___fldiv,f
  4607  0127' 2800'              	goto	u1485
  4608  0128'                    l1605:
  4609  0128' 30FF               	movlw	255
  4610  0129' 07AC'              	addwf	___fldiv@new_exp,f
  4611  012A' 1803               	skipnc
  4612  012B' 0AAD'              	incf	___fldiv@new_exp+1,f
  4613  012C' 30FF               	movlw	255
  4614  012D' 07AD'              	addwf	___fldiv@new_exp+1,f
  4615  012E'                    l1607:
  4616  012E' 1FA0'              	btfss	___fldiv@b+2,7
  4617  012F' 2800'              	goto	u1491
  4618  0130' 2800'              	goto	u1490
  4619  0131'                    u1491:
  4620  0131' 2800'              	goto	l1597
  4621  0132'                    u1490:
  4622  0132'                    l1609:
  4623  0132' 01B3'              	clrf	___fldiv@aexp
  4624  0133'                    l1611:
  4625  0133' 1FB1'              	btfss	___fldiv@grs+3,7
  4626  0134' 2800'              	goto	u1501
  4627  0135' 2800'              	goto	u1500
  4628  0136'                    u1501:
  4629  0136' 2800'              	goto	l1619
  4630  0137'                    u1500:
  4631  0137'                    l1613:
  4632  0137' 30FF               	movlw	255
  4633  0138' 052E'              	andwf	___fldiv@grs,w
  4634  0139' 00A2'              	movwf	??___fldiv
  4635  013A' 30FF               	movlw	255
  4636  013B' 052F'              	andwf	___fldiv@grs+1,w
  4637  013C' 00A3'              	movwf	??___fldiv+1
  4638  013D' 30FF               	movlw	255
  4639  013E' 0530'              	andwf	___fldiv@grs+2,w
  4640  013F' 00A4'              	movwf	??___fldiv+2
  4641  0140' 307F               	movlw	127
  4642  0141' 0531'              	andwf	___fldiv@grs+3,w
  4643  0142' 00A5'              	movwf	??___fldiv+3
  4644  0143' 0825'              	movf	??___fldiv+3,w
  4645  0144' 0424'              	iorwf	??___fldiv+2,w
  4646  0145' 0423'              	iorwf	??___fldiv+1,w
  4647  0146' 0422'              	iorwf	??___fldiv,w
  4648  0147' 1903               	skipnz
  4649  0148' 2800'              	goto	u1511
  4650  0149' 2800'              	goto	u1510
  4651  014A'                    u1511:
  4652  014A' 2800'              	goto	l667
  4653  014B'                    u1510:
  4654  014B'                    l1615:
  4655  014B' 01B3'              	clrf	___fldiv@aexp
  4656  014C' 0AB3'              	incf	___fldiv@aexp,f
  4657  014D' 2800'              	goto	l1619
  4658  014E'                    l667:
  4659  014E' 1C1E'              	btfss	___fldiv@b,0
  4660  014F' 2800'              	goto	u1521
  4661  0150' 2800'              	goto	u1520
  4662  0151'                    u1521:
  4663  0151' 2800'              	goto	l1619
  4664  0152'                    u1520:
  4665  0152' 2800'              	goto	l1615
  4666  0153'                    l1619:
  4667  0153' 0833'              	movf	___fldiv@aexp,w
  4668  0154' 1903               	btfsc	3,2
  4669  0155' 2800'              	goto	u1531
  4670  0156' 2800'              	goto	u1530
  4671  0157'                    u1531:
  4672  0157' 2800'              	goto	l1629
  4673  0158'                    u1530:
  4674  0158'                    l1621:
  4675  0158' 3001               	movlw	1
  4676  0159' 079E'              	addwf	___fldiv@b,f
  4677  015A' 3000               	movlw	0
  4678  015B' 1803               	skipnc
  4679  015C' 3001               	movlw	1
  4680  015D' 079F'              	addwf	___fldiv@b+1,f
  4681  015E' 3000               	movlw	0
  4682  015F' 1803               	skipnc
  4683  0160' 3001               	movlw	1
  4684  0161' 07A0'              	addwf	___fldiv@b+2,f
  4685  0162' 3000               	movlw	0
  4686  0163' 1803               	skipnc
  4687  0164' 3001               	movlw	1
  4688  0165' 07A1'              	addwf	___fldiv@b+3,f
  4689  0166'                    l1623:
  4690  0166' 1C21'              	btfss	___fldiv@b+3,0
  4691  0167' 2800'              	goto	u1541
  4692  0168' 2800'              	goto	u1540
  4693  0169'                    u1541:
  4694  0169' 2800'              	goto	l1629
  4695  016A'                    u1540:
  4696  016A'                    l1625:
  4697  016A' 081E'              	movf	___fldiv@b,w
  4698  016B' 00A2'              	movwf	??___fldiv
  4699  016C' 081F'              	movf	___fldiv@b+1,w
  4700  016D' 00A3'              	movwf	??___fldiv+1
  4701  016E' 0820'              	movf	___fldiv@b+2,w
  4702  016F' 00A4'              	movwf	??___fldiv+2
  4703  0170' 0821'              	movf	___fldiv@b+3,w
  4704  0171' 00A5'              	movwf	??___fldiv+3
  4705  0172' 3001               	movlw	1
  4706  0173' 00A6'              	movwf	??___fldiv+4
  4707  0174'                    u1555:
  4708  0174' 0D25'              	rlf	??___fldiv+3,w
  4709  0175' 0CA5'              	rrf	??___fldiv+3,f
  4710  0176' 0CA4'              	rrf	??___fldiv+2,f
  4711  0177' 0CA3'              	rrf	??___fldiv+1,f
  4712  0178' 0CA2'              	rrf	??___fldiv,f
  4713  0179'                    u1550:
  4714  0179' 0BA6'              	decfsz	??___fldiv+4,f
  4715  017A' 2800'              	goto	u1555
  4716  017B' 0825'              	movf	??___fldiv+3,w
  4717  017C' 00A1'              	movwf	___fldiv@b+3
  4718  017D' 0824'              	movf	??___fldiv+2,w
  4719  017E' 00A0'              	movwf	___fldiv@b+2
  4720  017F' 0823'              	movf	??___fldiv+1,w
  4721  0180' 009F'              	movwf	___fldiv@b+1
  4722  0181' 0822'              	movf	??___fldiv,w
  4723  0182' 009E'              	movwf	___fldiv@b
  4724  0183'                    l1627:
  4725  0183' 3001               	movlw	1
  4726  0184' 07AC'              	addwf	___fldiv@new_exp,f
  4727  0185' 1803               	skipnc
  4728  0186' 0AAD'              	incf	___fldiv@new_exp+1,f
  4729  0187' 3000               	movlw	0
  4730  0188' 07AD'              	addwf	___fldiv@new_exp+1,f
  4731  0189'                    l1629:
  4732  0189' 082D'              	movf	___fldiv@new_exp+1,w
  4733  018A' 3A80               	xorlw	128
  4734  018B' 00FF               	movwf	btemp+1
  4735  018C' 3080               	movlw	128
  4736  018D' 027F               	subwf	btemp+1,w
  4737  018E' 1D03               	skipz
  4738  018F' 2800'              	goto	u1565
  4739  0190' 30FF               	movlw	255
  4740  0191' 022C'              	subwf	___fldiv@new_exp,w
  4741  0192'                    u1565:
  4742  0192' 1C03               	skipc
  4743  0193' 2800'              	goto	u1561
  4744  0194' 2800'              	goto	u1560
  4745  0195'                    u1561:
  4746  0195' 2800'              	goto	l1633
  4747  0196'                    u1560:
  4748  0196'                    l1631:
  4749  0196' 30FF               	movlw	255
  4750  0197' 1283               	bcf	3,5	;RP0=0, select bank0
  4751  0198' 1303               	bcf	3,6	;RP1=0, select bank0
  4752  0199' 00AC'              	movwf	___fldiv@new_exp
  4753  019A' 3000               	movlw	0
  4754  019B' 00AD'              	movwf	___fldiv@new_exp+1
  4755  019C' 3000               	movlw	0
  4756  019D' 00A1'              	movwf	___fldiv@b+3
  4757  019E' 3000               	movlw	0
  4758  019F' 00A0'              	movwf	___fldiv@b+2
  4759  01A0' 3000               	movlw	0
  4760  01A1' 009F'              	movwf	___fldiv@b+1
  4761  01A2' 3000               	movlw	0
  4762  01A3' 009E'              	movwf	___fldiv@b
  4763  01A4'                    l1633:
  4764  01A4' 1283               	bcf	3,5	;RP0=0, select bank0
  4765  01A5' 1303               	bcf	3,6	;RP1=0, select bank0
  4766  01A6' 082D'              	movf	___fldiv@new_exp+1,w
  4767  01A7' 3A80               	xorlw	128
  4768  01A8' 00FF               	movwf	btemp+1
  4769  01A9' 3080               	movlw	128
  4770  01AA' 027F               	subwf	btemp+1,w
  4771  01AB' 1D03               	skipz
  4772  01AC' 2800'              	goto	u1575
  4773  01AD' 3001               	movlw	1
  4774  01AE' 022C'              	subwf	___fldiv@new_exp,w
  4775  01AF'                    u1575:
  4776  01AF' 1803               	skipnc
  4777  01B0' 2800'              	goto	u1571
  4778  01B1' 2800'              	goto	u1570
  4779  01B2'                    u1571:
  4780  01B2' 2800'              	goto	l673
  4781  01B3'                    u1570:
  4782  01B3'                    l1635:
  4783  01B3' 1283               	bcf	3,5	;RP0=0, select bank0
  4784  01B4' 1303               	bcf	3,6	;RP1=0, select bank0
  4785  01B5' 01AC'              	clrf	___fldiv@new_exp
  4786  01B6' 01AD'              	clrf	___fldiv@new_exp+1
  4787  01B7'                    l1637:
  4788  01B7' 3000               	movlw	0
  4789  01B8' 00A1'              	movwf	___fldiv@b+3
  4790  01B9' 3000               	movlw	0
  4791  01BA' 00A0'              	movwf	___fldiv@b+2
  4792  01BB' 3000               	movlw	0
  4793  01BC' 009F'              	movwf	___fldiv@b+1
  4794  01BD' 3000               	movlw	0
  4795  01BE' 009E'              	movwf	___fldiv@b
  4796  01BF'                    l1639:
  4797  01BF' 01AB'              	clrf	___fldiv@sign
  4798  01C0'                    l673:
  4799  01C0' 1283               	bcf	3,5	;RP0=0, select bank0
  4800  01C1' 1303               	bcf	3,6	;RP1=0, select bank0
  4801  01C2' 082C'              	movf	___fldiv@new_exp,w
  4802  01C3' 00A2'              	movwf	??___fldiv
  4803  01C4' 0822'              	movf	??___fldiv,w
  4804  01C5' 00B2'              	movwf	___fldiv@bexp
  4805  01C6'                    l1641:
  4806  01C6' 1C32'              	btfss	___fldiv@bexp,0
  4807  01C7' 2800'              	goto	u1581
  4808  01C8' 2800'              	goto	u1580
  4809  01C9'                    u1581:
  4810  01C9' 2800'              	goto	l1645
  4811  01CA'                    u1580:
  4812  01CA'                    l1643:
  4813  01CA' 17A0'              	bsf	___fldiv@b+2,7
  4814  01CB' 2800'              	goto	l675
  4815  01CC'                    l1645:
  4816  01CC' 307F               	movlw	127
  4817  01CD' 00A2'              	movwf	??___fldiv
  4818  01CE' 0822'              	movf	??___fldiv,w
  4819  01CF' 05A0'              	andwf	___fldiv@b+2,f
  4820  01D0'                    l675:
  4821  01D0' 0832'              	movf	___fldiv@bexp,w
  4822  01D1' 00A2'              	movwf	??___fldiv
  4823  01D2' 1003               	clrc
  4824  01D3' 0C22'              	rrf	??___fldiv,w
  4825  01D4' 00A3'              	movwf	??___fldiv+1
  4826  01D5' 0823'              	movf	??___fldiv+1,w
  4827  01D6' 00A1'              	movwf	___fldiv@b+3
  4828  01D7' 082B'              	movf	___fldiv@sign,w
  4829  01D8' 00A2'              	movwf	??___fldiv
  4830  01D9' 0822'              	movf	??___fldiv,w
  4831  01DA' 04A1'              	iorwf	___fldiv@b+3,f
  4832  01DB' 2800'              	goto	l1553
  4833  01DC'                    l653:
  4834  01DC' 0008               	return
  4835  01DD'                    __end_of___fldiv:
  4836                           
  4837                           	psect	text24
  4838  0000'                    __ptext24:	
  4839 ;; *************** function _ADC_CHANNEL *****************
  4840 ;; Defined at:
  4841 ;;		line 39 in file "./LIB_ADC.h"
  4842 ;; Parameters:    Size  Location     Type
  4843 ;;  canal           2    0[COMMON] unsigned short 
  4844 ;; Auto vars:     Size  Location     Type
  4845 ;;		None
  4846 ;; Return value:  Size  Location     Type
  4847 ;;                  2    0[COMMON] unsigned int 
  4848 ;; Registers used:
  4849 ;;		wreg, fsr0l, fsr0h, status,2, status,0
  4850 ;; Tracked objects:
  4851 ;;		On entry : 0/0
  4852 ;;		On exit  : 0/0
  4853 ;;		Unchanged: 0/0
  4854 ;; Data sizes:     COMMON   BANK0   BANK1   BANK3   BANK2
  4855 ;;      Params:         2       0       0       0       0
  4856 ;;      Locals:         0       0       0       0       0
  4857 ;;      Temps:          0       0       0       0       0
  4858 ;;      Totals:         2       0       0       0       0
  4859 ;;Total ram usage:        2 bytes
  4860 ;; Hardware stack levels used:    1
  4861 ;; This function calls:
  4862 ;;		Nothing
  4863 ;; This function is called by:
  4864 ;;		_ADC_1
  4865 ;;		_ADC_2
  4866 ;; This function uses a non-reentrant model
  4867 ;;
  4868                           
  4869                           
  4870                           ;psect for function _ADC_CHANNEL
  4871  0000'                    _ADC_CHANNEL:
  4872  0000'                    l1463:	
  4873                           ;incstack = 0
  4874                           ; Regs used in _ADC_CHANNEL: [wreg-fsr0h+status,2+status,0]
  4875                           
  4876                           
  4877                           ;./LIB_ADC.h: 41:     switch (canal) {
  4878  0000' 2800'              	goto	l1467
  4879  0001'                    l139:	
  4880                           ;./LIB_ADC.h: 42:         case 0:
  4881                           
  4882                           
  4883                           ;./LIB_ADC.h: 43:             ADCON0bits.CHS3 = 0;
  4884  0001' 1283               	bcf	3,5	;RP0=0, select bank0
  4885  0002' 1303               	bcf	3,6	;RP1=0, select bank0
  4886  0003' 129F               	bcf	31,5	;volatile
  4887                           
  4888                           ;./LIB_ADC.h: 44:             ADCON0bits.CHS2 = 0;
  4889  0004' 121F               	bcf	31,4	;volatile
  4890                           
  4891                           ;./LIB_ADC.h: 45:             ADCON0bits.CHS1 = 0;
  4892  0005' 119F               	bcf	31,3	;volatile
  4893                           
  4894                           ;./LIB_ADC.h: 46:             ADCON0bits.CHS0 = 0;
  4895  0006' 111F               	bcf	31,2	;volatile
  4896                           
  4897                           ;./LIB_ADC.h: 48:             break;
  4898  0007' 2800'              	goto	l157
  4899  0008'                    l141:	
  4900                           ;./LIB_ADC.h: 49:         case 1:
  4901                           
  4902                           
  4903                           ;./LIB_ADC.h: 50:             ADCON0bits.CHS3 = 0;
  4904  0008' 1283               	bcf	3,5	;RP0=0, select bank0
  4905  0009' 1303               	bcf	3,6	;RP1=0, select bank0
  4906  000A' 129F               	bcf	31,5	;volatile
  4907                           
  4908                           ;./LIB_ADC.h: 51:             ADCON0bits.CHS2 = 0;
  4909  000B' 121F               	bcf	31,4	;volatile
  4910                           
  4911                           ;./LIB_ADC.h: 52:             ADCON0bits.CHS1 = 0;
  4912  000C' 119F               	bcf	31,3	;volatile
  4913                           
  4914                           ;./LIB_ADC.h: 53:             ADCON0bits.CHS0 = 1;
  4915  000D' 151F               	bsf	31,2	;volatile
  4916                           
  4917                           ;./LIB_ADC.h: 54:             break;
  4918  000E' 2800'              	goto	l157
  4919  000F'                    l142:	
  4920                           ;./LIB_ADC.h: 55:         case 2:
  4921                           
  4922                           
  4923                           ;./LIB_ADC.h: 56:             ADCON0bits.CHS3 = 0;
  4924  000F' 1283               	bcf	3,5	;RP0=0, select bank0
  4925  0010' 1303               	bcf	3,6	;RP1=0, select bank0
  4926  0011' 129F               	bcf	31,5	;volatile
  4927                           
  4928                           ;./LIB_ADC.h: 57:             ADCON0bits.CHS2 = 0;
  4929  0012' 121F               	bcf	31,4	;volatile
  4930                           
  4931                           ;./LIB_ADC.h: 58:             ADCON0bits.CHS1 = 1;
  4932  0013' 159F               	bsf	31,3	;volatile
  4933                           
  4934                           ;./LIB_ADC.h: 59:             ADCON0bits.CHS0 = 0;
  4935  0014' 111F               	bcf	31,2	;volatile
  4936                           
  4937                           ;./LIB_ADC.h: 60:             break;
  4938  0015' 2800'              	goto	l157
  4939  0016'                    l143:	
  4940                           ;./LIB_ADC.h: 61:         case 3:
  4941                           
  4942                           
  4943                           ;./LIB_ADC.h: 62:             ADCON0bits.CHS3 = 0;
  4944  0016' 1283               	bcf	3,5	;RP0=0, select bank0
  4945  0017' 1303               	bcf	3,6	;RP1=0, select bank0
  4946  0018' 129F               	bcf	31,5	;volatile
  4947                           
  4948                           ;./LIB_ADC.h: 63:             ADCON0bits.CHS2 = 0;
  4949  0019' 121F               	bcf	31,4	;volatile
  4950                           
  4951                           ;./LIB_ADC.h: 64:             ADCON0bits.CHS1 = 1;
  4952  001A' 159F               	bsf	31,3	;volatile
  4953                           
  4954                           ;./LIB_ADC.h: 65:             ADCON0bits.CHS0 = 1;
  4955  001B' 151F               	bsf	31,2	;volatile
  4956                           
  4957                           ;./LIB_ADC.h: 66:             break;
  4958  001C' 2800'              	goto	l157
  4959  001D'                    l144:	
  4960                           ;./LIB_ADC.h: 67:         case 4:
  4961                           
  4962                           
  4963                           ;./LIB_ADC.h: 68:             ADCON0bits.CHS3 = 0;
  4964  001D' 1283               	bcf	3,5	;RP0=0, select bank0
  4965  001E' 1303               	bcf	3,6	;RP1=0, select bank0
  4966  001F' 129F               	bcf	31,5	;volatile
  4967                           
  4968                           ;./LIB_ADC.h: 69:             ADCON0bits.CHS2 = 1;
  4969  0020' 161F               	bsf	31,4	;volatile
  4970                           
  4971                           ;./LIB_ADC.h: 70:             ADCON0bits.CHS1 = 0;
  4972  0021' 119F               	bcf	31,3	;volatile
  4973                           
  4974                           ;./LIB_ADC.h: 71:             ADCON0bits.CHS0 = 0;
  4975  0022' 111F               	bcf	31,2	;volatile
  4976                           
  4977                           ;./LIB_ADC.h: 72:             break;
  4978  0023' 2800'              	goto	l157
  4979  0024'                    l145:	
  4980                           ;./LIB_ADC.h: 73:         case 5:
  4981                           
  4982                           
  4983                           ;./LIB_ADC.h: 74:             ADCON0bits.CHS3 = 0;
  4984  0024' 1283               	bcf	3,5	;RP0=0, select bank0
  4985  0025' 1303               	bcf	3,6	;RP1=0, select bank0
  4986  0026' 129F               	bcf	31,5	;volatile
  4987                           
  4988                           ;./LIB_ADC.h: 75:             ADCON0bits.CHS2 = 1;
  4989  0027' 161F               	bsf	31,4	;volatile
  4990                           
  4991                           ;./LIB_ADC.h: 76:             ADCON0bits.CHS1 = 0;
  4992  0028' 119F               	bcf	31,3	;volatile
  4993                           
  4994                           ;./LIB_ADC.h: 77:             ADCON0bits.CHS0 = 1;
  4995  0029' 151F               	bsf	31,2	;volatile
  4996                           
  4997                           ;./LIB_ADC.h: 78:             break;
  4998  002A' 2800'              	goto	l157
  4999  002B'                    l146:	
  5000                           ;./LIB_ADC.h: 79:         case 6:
  5001                           
  5002                           
  5003                           ;./LIB_ADC.h: 80:             ADCON0bits.CHS3 = 0;
  5004  002B' 1283               	bcf	3,5	;RP0=0, select bank0
  5005  002C' 1303               	bcf	3,6	;RP1=0, select bank0
  5006  002D' 129F               	bcf	31,5	;volatile
  5007                           
  5008                           ;./LIB_ADC.h: 81:             ADCON0bits.CHS2 = 1;
  5009  002E' 161F               	bsf	31,4	;volatile
  5010                           
  5011                           ;./LIB_ADC.h: 82:             ADCON0bits.CHS1 = 1;
  5012  002F' 159F               	bsf	31,3	;volatile
  5013                           
  5014                           ;./LIB_ADC.h: 83:             ADCON0bits.CHS0 = 0;
  5015  0030' 111F               	bcf	31,2	;volatile
  5016                           
  5017                           ;./LIB_ADC.h: 84:             break;
  5018  0031' 2800'              	goto	l157
  5019  0032'                    l147:	
  5020                           ;./LIB_ADC.h: 85:         case 7:
  5021                           
  5022                           
  5023                           ;./LIB_ADC.h: 86:             ADCON0bits.CHS3 = 0;
  5024  0032' 1283               	bcf	3,5	;RP0=0, select bank0
  5025  0033' 1303               	bcf	3,6	;RP1=0, select bank0
  5026  0034' 129F               	bcf	31,5	;volatile
  5027                           
  5028                           ;./LIB_ADC.h: 87:             ADCON0bits.CHS2 = 1;
  5029  0035' 161F               	bsf	31,4	;volatile
  5030                           
  5031                           ;./LIB_ADC.h: 88:             ADCON0bits.CHS1 = 1;
  5032  0036' 159F               	bsf	31,3	;volatile
  5033                           
  5034                           ;./LIB_ADC.h: 89:             ADCON0bits.CHS0 = 1;
  5035  0037' 151F               	bsf	31,2	;volatile
  5036                           
  5037                           ;./LIB_ADC.h: 90:             break;
  5038  0038' 2800'              	goto	l157
  5039  0039'                    l148:	
  5040                           ;./LIB_ADC.h: 91:         case 8:
  5041                           
  5042                           
  5043                           ;./LIB_ADC.h: 92:             ADCON0bits.CHS3 = 1;
  5044  0039' 1283               	bcf	3,5	;RP0=0, select bank0
  5045  003A' 1303               	bcf	3,6	;RP1=0, select bank0
  5046  003B' 169F               	bsf	31,5	;volatile
  5047                           
  5048                           ;./LIB_ADC.h: 93:             ADCON0bits.CHS2 = 0;
  5049  003C' 121F               	bcf	31,4	;volatile
  5050                           
  5051                           ;./LIB_ADC.h: 94:             ADCON0bits.CHS1 = 0;
  5052  003D' 119F               	bcf	31,3	;volatile
  5053                           
  5054                           ;./LIB_ADC.h: 95:             ADCON0bits.CHS0 = 0;
  5055  003E' 111F               	bcf	31,2	;volatile
  5056                           
  5057                           ;./LIB_ADC.h: 96:             break;
  5058  003F' 2800'              	goto	l157
  5059  0040'                    l149:	
  5060                           ;./LIB_ADC.h: 97:         case 9:
  5061                           
  5062                           
  5063                           ;./LIB_ADC.h: 98:             ADCON0bits.CHS3 = 1;
  5064  0040' 1283               	bcf	3,5	;RP0=0, select bank0
  5065  0041' 1303               	bcf	3,6	;RP1=0, select bank0
  5066  0042' 169F               	bsf	31,5	;volatile
  5067                           
  5068                           ;./LIB_ADC.h: 99:             ADCON0bits.CHS2 = 0;
  5069  0043' 121F               	bcf	31,4	;volatile
  5070                           
  5071                           ;./LIB_ADC.h: 100:             ADCON0bits.CHS1 = 0;
  5072  0044' 119F               	bcf	31,3	;volatile
  5073                           
  5074                           ;./LIB_ADC.h: 101:             ADCON0bits.CHS0 = 1;
  5075  0045' 151F               	bsf	31,2	;volatile
  5076                           
  5077                           ;./LIB_ADC.h: 102:             break;
  5078  0046' 2800'              	goto	l157
  5079  0047'                    l150:	
  5080                           ;./LIB_ADC.h: 103:         case 10:
  5081                           
  5082                           
  5083                           ;./LIB_ADC.h: 104:             ADCON0bits.CHS3 = 1;
  5084  0047' 1283               	bcf	3,5	;RP0=0, select bank0
  5085  0048' 1303               	bcf	3,6	;RP1=0, select bank0
  5086  0049' 169F               	bsf	31,5	;volatile
  5087                           
  5088                           ;./LIB_ADC.h: 105:             ADCON0bits.CHS2 = 0;
  5089  004A' 121F               	bcf	31,4	;volatile
  5090                           
  5091                           ;./LIB_ADC.h: 106:             ADCON0bits.CHS1 = 1;
  5092  004B' 159F               	bsf	31,3	;volatile
  5093                           
  5094                           ;./LIB_ADC.h: 107:             ADCON0bits.CHS0 = 0;
  5095  004C' 111F               	bcf	31,2	;volatile
  5096                           
  5097                           ;./LIB_ADC.h: 108:             break;
  5098  004D' 2800'              	goto	l157
  5099  004E'                    l151:	
  5100                           ;./LIB_ADC.h: 109:         case 11:
  5101                           
  5102                           
  5103                           ;./LIB_ADC.h: 110:             ADCON0bits.CHS3 = 1;
  5104  004E' 1283               	bcf	3,5	;RP0=0, select bank0
  5105  004F' 1303               	bcf	3,6	;RP1=0, select bank0
  5106  0050' 169F               	bsf	31,5	;volatile
  5107                           
  5108                           ;./LIB_ADC.h: 111:             ADCON0bits.CHS2 = 0;
  5109  0051' 121F               	bcf	31,4	;volatile
  5110                           
  5111                           ;./LIB_ADC.h: 112:             ADCON0bits.CHS1 = 1;
  5112  0052' 159F               	bsf	31,3	;volatile
  5113                           
  5114                           ;./LIB_ADC.h: 113:             ADCON0bits.CHS0 = 1;
  5115  0053' 151F               	bsf	31,2	;volatile
  5116                           
  5117                           ;./LIB_ADC.h: 114:             break;
  5118  0054' 2800'              	goto	l157
  5119  0055'                    l152:	
  5120                           ;./LIB_ADC.h: 115:         case 12:
  5121                           
  5122                           
  5123                           ;./LIB_ADC.h: 116:             ADCON0bits.CHS3 = 1;
  5124  0055' 1283               	bcf	3,5	;RP0=0, select bank0
  5125  0056' 1303               	bcf	3,6	;RP1=0, select bank0
  5126  0057' 169F               	bsf	31,5	;volatile
  5127                           
  5128                           ;./LIB_ADC.h: 117:             ADCON0bits.CHS2 = 1;
  5129  0058' 161F               	bsf	31,4	;volatile
  5130                           
  5131                           ;./LIB_ADC.h: 118:             ADCON0bits.CHS1 = 0;
  5132  0059' 119F               	bcf	31,3	;volatile
  5133                           
  5134                           ;./LIB_ADC.h: 119:             ADCON0bits.CHS0 = 0;
  5135  005A' 111F               	bcf	31,2	;volatile
  5136                           
  5137                           ;./LIB_ADC.h: 120:             break;
  5138  005B' 2800'              	goto	l157
  5139  005C'                    l153:	
  5140                           ;./LIB_ADC.h: 121:         case 13:
  5141                           
  5142                           
  5143                           ;./LIB_ADC.h: 122:             ADCON0bits.CHS3 = 1;
  5144  005C' 1283               	bcf	3,5	;RP0=0, select bank0
  5145  005D' 1303               	bcf	3,6	;RP1=0, select bank0
  5146  005E' 169F               	bsf	31,5	;volatile
  5147                           
  5148                           ;./LIB_ADC.h: 123:             ADCON0bits.CHS2 = 1;
  5149  005F' 161F               	bsf	31,4	;volatile
  5150                           
  5151                           ;./LIB_ADC.h: 124:             ADCON0bits.CHS1 = 0;
  5152  0060' 119F               	bcf	31,3	;volatile
  5153                           
  5154                           ;./LIB_ADC.h: 125:             ADCON0bits.CHS0 = 1;
  5155  0061' 151F               	bsf	31,2	;volatile
  5156                           
  5157                           ;./LIB_ADC.h: 126:             break;
  5158  0062' 2800'              	goto	l157
  5159  0063'                    l154:	
  5160                           ;./LIB_ADC.h: 127:         case 14:
  5161                           
  5162                           
  5163                           ;./LIB_ADC.h: 128:             ADCON0bits.CHS3 = 1;
  5164  0063' 1283               	bcf	3,5	;RP0=0, select bank0
  5165  0064' 1303               	bcf	3,6	;RP1=0, select bank0
  5166  0065' 169F               	bsf	31,5	;volatile
  5167                           
  5168                           ;./LIB_ADC.h: 129:             ADCON0bits.CHS2 = 1;
  5169  0066' 161F               	bsf	31,4	;volatile
  5170                           
  5171                           ;./LIB_ADC.h: 130:             ADCON0bits.CHS1 = 1;
  5172  0067' 159F               	bsf	31,3	;volatile
  5173                           
  5174                           ;./LIB_ADC.h: 131:             ADCON0bits.CHS0 = 0;
  5175  0068' 111F               	bcf	31,2	;volatile
  5176                           
  5177                           ;./LIB_ADC.h: 132:             break;
  5178  0069' 2800'              	goto	l157
  5179  006A'                    l155:	
  5180                           ;./LIB_ADC.h: 133:         case 15:
  5181                           
  5182                           
  5183                           ;./LIB_ADC.h: 134:             ADCON0bits.CHS3 = 1;
  5184  006A' 1283               	bcf	3,5	;RP0=0, select bank0
  5185  006B' 1303               	bcf	3,6	;RP1=0, select bank0
  5186  006C' 169F               	bsf	31,5	;volatile
  5187                           
  5188                           ;./LIB_ADC.h: 135:             ADCON0bits.CHS2 = 1;
  5189  006D' 161F               	bsf	31,4	;volatile
  5190                           
  5191                           ;./LIB_ADC.h: 136:             ADCON0bits.CHS1 = 1;
  5192  006E' 159F               	bsf	31,3	;volatile
  5193                           
  5194                           ;./LIB_ADC.h: 137:             ADCON0bits.CHS0 = 1;
  5195  006F' 151F               	bsf	31,2	;volatile
  5196                           
  5197                           ;./LIB_ADC.h: 138:             break;
  5198  0070' 2800'              	goto	l157
  5199  0071'                    l156:	
  5200                           ;./LIB_ADC.h: 139:         default:
  5201                           
  5202                           
  5203                           ;./LIB_ADC.h: 140:             ADCON0bits.CHS3 = 0;
  5204  0071' 1283               	bcf	3,5	;RP0=0, select bank0
  5205  0072' 1303               	bcf	3,6	;RP1=0, select bank0
  5206  0073' 129F               	bcf	31,5	;volatile
  5207                           
  5208                           ;./LIB_ADC.h: 141:             ADCON0bits.CHS2 = 0;
  5209  0074' 121F               	bcf	31,4	;volatile
  5210                           
  5211                           ;./LIB_ADC.h: 142:             ADCON0bits.CHS1 = 0;
  5212  0075' 119F               	bcf	31,3	;volatile
  5213                           
  5214                           ;./LIB_ADC.h: 143:             ADCON0bits.CHS0 = 0;
  5215  0076' 111F               	bcf	31,2	;volatile
  5216                           
  5217                           ;./LIB_ADC.h: 144:             break;
  5218  0077' 2800'              	goto	l157
  5219  0078'                    l1467:
  5220                           
  5221                           ; Switch on 2 bytes has been partitioned into a top level switch of size 1, and 1 sub-sw
      +                          itches
  5222                           ; Switch size 1, requested type "simple"
  5223                           ; Number of cases is 1, Range of values is 0 to 0
  5224                           ; switch strategies available:
  5225                           ; Name         Instructions Cycles
  5226                           ; simple_byte            4     3 (average)
  5227                           ; direct_byte           11     8 (fixed)
  5228                           ; jumptable            260     6 (fixed)
  5229                           ;	Chosen strategy is simple_byte
  5230  0078' 0801'              	movf	ADC_CHANNEL@canal+1,w
  5231  0079' 3A00               	xorlw	0	; case 0
  5232  007A' 1903               	skipnz
  5233  007B' 2800'              	goto	l2007
  5234  007C' 2800'              	goto	l156
  5235  007D'                    l2007:
  5236                           
  5237                           ; Switch size 1, requested type "simple"
  5238                           ; Number of cases is 16, Range of values is 0 to 15
  5239                           ; switch strategies available:
  5240                           ; Name         Instructions Cycles
  5241                           ; simple_byte           49    25 (average)
  5242                           ; direct_byte           56     8 (fixed)
  5243                           ; jumptable            260     6 (fixed)
  5244                           ;	Chosen strategy is simple_byte
  5245  007D' 0800'              	movf	ADC_CHANNEL@canal,w
  5246  007E' 3A00               	xorlw	0	; case 0
  5247  007F' 1903               	skipnz
  5248  0080' 2800'              	goto	l139
  5249  0081' 3A01               	xorlw	1	; case 1
  5250  0082' 1903               	skipnz
  5251  0083' 2800'              	goto	l141
  5252  0084' 3A03               	xorlw	3	; case 2
  5253  0085' 1903               	skipnz
  5254  0086' 2800'              	goto	l142
  5255  0087' 3A01               	xorlw	1	; case 3
  5256  0088' 1903               	skipnz
  5257  0089' 2800'              	goto	l143
  5258  008A' 3A07               	xorlw	7	; case 4
  5259  008B' 1903               	skipnz
  5260  008C' 2800'              	goto	l144
  5261  008D' 3A01               	xorlw	1	; case 5
  5262  008E' 1903               	skipnz
  5263  008F' 2800'              	goto	l145
  5264  0090' 3A03               	xorlw	3	; case 6
  5265  0091' 1903               	skipnz
  5266  0092' 2800'              	goto	l146
  5267  0093' 3A01               	xorlw	1	; case 7
  5268  0094' 1903               	skipnz
  5269  0095' 2800'              	goto	l147
  5270  0096' 3A0F               	xorlw	15	; case 8
  5271  0097' 1903               	skipnz
  5272  0098' 2800'              	goto	l148
  5273  0099' 3A01               	xorlw	1	; case 9
  5274  009A' 1903               	skipnz
  5275  009B' 2800'              	goto	l149
  5276  009C' 3A03               	xorlw	3	; case 10
  5277  009D' 1903               	skipnz
  5278  009E' 2800'              	goto	l150
  5279  009F' 3A01               	xorlw	1	; case 11
  5280  00A0' 1903               	skipnz
  5281  00A1' 2800'              	goto	l151
  5282  00A2' 3A07               	xorlw	7	; case 12
  5283  00A3' 1903               	skipnz
  5284  00A4' 2800'              	goto	l152
  5285  00A5' 3A01               	xorlw	1	; case 13
  5286  00A6' 1903               	skipnz
  5287  00A7' 2800'              	goto	l153
  5288  00A8' 3A03               	xorlw	3	; case 14
  5289  00A9' 1903               	skipnz
  5290  00AA' 2800'              	goto	l154
  5291  00AB' 3A01               	xorlw	1	; case 15
  5292  00AC' 1903               	skipnz
  5293  00AD' 2800'              	goto	l155
  5294  00AE' 2800'              	goto	l156
  5295  00AF'                    l157:
  5296  00AF' 0008               	return
  5297  00B0'                    __end_of_ADC_CHANNEL:
  5298  007E                     btemp	set	126	;btemp
  5299  007E                     wtemp0	set	126
  5300                           
  5301                           	psect	config
  5302                           
  5303                           ;Config register CONFIG1 @ 0x2007
  5304                           ;	Oscillator Selection bits
  5305                           ;	FOSC = XT, XT oscillator: Crystal/resonator on RA6/OSC2/CLKOUT and RA7/OSC1/CLKIN
  5306                           ;	Watchdog Timer Enable bit
  5307                           ;	WDTE = OFF, WDT disabled and can be enabled by SWDTEN bit of the WDTCON register
  5308                           ;	Power-up Timer Enable bit
  5309                           ;	PWRTE = OFF, PWRT disabled
  5310                           ;	RE3/MCLR pin function select bit
  5311                           ;	MCLRE = OFF, RE3/MCLR pin function is digital input, MCLR internally tied to VDD
  5312                           ;	Code Protection bit
  5313                           ;	CP = OFF, Program memory code protection is disabled
  5314                           ;	Data Code Protection bit
  5315                           ;	CPD = OFF, Data memory code protection is disabled
  5316                           ;	Brown Out Reset Selection bits
  5317                           ;	BOREN = OFF, BOR disabled
  5318                           ;	Internal External Switchover bit
  5319                           ;	IESO = OFF, Internal/External Switchover mode is disabled
  5320                           ;	Fail-Safe Clock Monitor Enabled bit
  5321                           ;	FCMEN = OFF, Fail-Safe Clock Monitor is disabled
  5322                           ;	Low Voltage Programming Enable bit
  5323                           ;	LVP = OFF, RB3 pin has digital I/O, HV on MCLR must be used for programming
  5324                           ;	In-Circuit Debugger Mode bit
  5325                           ;	DEBUG = 0x1, unprogrammed default
  5326  2007                     	org	8199
  5327  2007  20D1               	dw	8401
  5328                           
  5329                           ;Config register CONFIG2 @ 0x2008
  5330                           ;	Brown-out Reset Selection bit
  5331                           ;	BOR4V = BOR40V, Brown-out Reset set to 4.0V
  5332                           ;	Flash Program Memory Self Write Enable bits
  5333                           ;	WRT = OFF, Write protection off
  5334  2008                     	org	8200
  5335  2008  3FFF               	dw	16383

Data Sizes:
    Strings     31
    Constant    0
    Data        0
    BSS         24
    Persistent  0
    Stack       0

Auto Spaces:
    Space          Size  Autos    Used
    COMMON           14     14      14
    BANK0            80     58      66
    BANK1            80      0      16
    BANK3            96      0       0
    BANK2            96      0       0

Pointer List with Targets:

    _doprnt$2	PTR PTR void  size(1) Largest target is 1
		 -> sprintf@ap(BANK0[1]), 

    _doprnt$1	PTR const unsigned char  size(1) Largest target is 13
		 -> STR_2(CODE[13]), 

    _doprnt$0	PTR struct __prbuf size(1) Largest target is 3
		 -> sprintf@pb(BANK0[2]), 

    sprintf@f	PTR const unsigned char  size(1) Largest target is 13
		 -> STR_2(CODE[13]), 

    sprintf@ap	PTR void [1] size(1) Largest target is 2
		 -> ?_sprintf(COMMON[2]), 

    sprintf@wh	PTR unsigned char  size(1) Largest target is 16
		 -> data(BANK1[16]), 

    S819__prbuf$func	PTR FTN(unsigned char ,)void  size(1) Largest target is 1
		 -> Absolute function(), 

    pb.func	PTR FTN(unsigned char ,)void  size(1) Largest target is 1
		 -> Absolute function(), 

    S819__prbuf$ptr	PTR unsigned char  size(1) Largest target is 16
		 -> data(BANK1[16]), 

    pb.ptr	PTR unsigned char  size(1) Largest target is 16
		 -> data(BANK1[16]), 

    Lcd_Write_String@a	PTR unsigned char  size(2) Largest target is 18
		 -> data(BANK1[16]), STR_1(CODE[18]), 


Critical Paths under _main in COMMON

    _Mandar2->___fltol
    _Mandar1->___fltol
    _Lcd_Write_String->_Lcd_Write_Char
    _Lcd_Write_Char->_Lcd_Port
    _Lcd_Set_Cursor->_Lcd_Cmd
    _Lcd_Init->_Lcd_Cmd
    _Lcd_Cmd->_Lcd_Port
    _ADC_2->___xxtofl
    _ADC_1->___xxtofl
    ___flmul->___xxtofl
    ___fldiv->___xxtofl

Critical Paths under _main in BANK0

    _main->_ADC_1
    _main->_ADC_2
    _ADC_2->___fldiv
    _ADC_1->___fldiv
    ___fldiv->___flmul

Critical Paths under _main in BANK1

    None.

Critical Paths under _main in BANK3

    None.

Critical Paths under _main in BANK2

    None.

Call Graph Tables:

 ---------------------------------------------------------------------------------
 (Depth) Function   	        Calls       Base Space   Used Autos Params    Refs
 ---------------------------------------------------------------------------------
 (0) _main                                                 2     2      0   11458
                                             56 BANK0      2     2      0
                              _ADC_1
                              _ADC_2
                           _ADC_INIT
                      _ADC_INTERRUPT
                            _Baudios
                          _CONFIG_IO
                           _Lcd_Init
                     _Lcd_Set_Cursor
                   _Lcd_Write_String
                            _Mandar1
                            _Mandar2
                          _OSCILADOR
                       _config_rcsta
                       _config_txsta
                            _sprintf
 ---------------------------------------------------------------------------------
 (1) _sprintf                                             15     6      9     290
                                              0 COMMON    11     2      9
                                              0 BANK0      4     4      0
                            __doprnt
 ---------------------------------------------------------------------------------
 (2) __doprnt                                              2     0      2      33
 ---------------------------------------------------------------------------------
 (1) _config_txsta                                         0     0      0       0
 ---------------------------------------------------------------------------------
 (1) _config_rcsta                                         0     0      0       0
 ---------------------------------------------------------------------------------
 (1) _OSCILADOR                                            0     0      0       0
 ---------------------------------------------------------------------------------
 (1) _Mandar2                                              0     0      0     381
                            ___fltol
 ---------------------------------------------------------------------------------
 (1) _Mandar1                                              0     0      0     381
                            ___fltol
 ---------------------------------------------------------------------------------
 (2) ___fltol                                             11     7      4     381
                                              0 COMMON    11     7      4
 ---------------------------------------------------------------------------------
 (1) _Lcd_Write_String                                     7     5      2     440
                                              3 COMMON     7     5      2
                     _Lcd_Write_Char
 ---------------------------------------------------------------------------------
 (2) _Lcd_Write_Char                                       2     2      0     198
                                              1 COMMON     2     2      0
                           _Lcd_Port
 ---------------------------------------------------------------------------------
 (1) _Lcd_Set_Cursor                                       6     5      1     484
                                              4 COMMON     4     3      1
                            _Lcd_Cmd
 ---------------------------------------------------------------------------------
 (1) _Lcd_Init                                             2     2      0     198
                                              4 COMMON     2     2      0
                            _Lcd_Cmd
 ---------------------------------------------------------------------------------
 (2) _Lcd_Cmd                                              3     3      0     198
                                              1 COMMON     3     3      0
                           _Lcd_Port
 ---------------------------------------------------------------------------------
 (3) _Lcd_Port                                             1     1      0     176
                                              0 COMMON     1     1      0
 ---------------------------------------------------------------------------------
 (1) _CONFIG_IO                                            0     0      0       0
 ---------------------------------------------------------------------------------
 (1) _Baudios                                              0     0      0       0
 ---------------------------------------------------------------------------------
 (1) _ADC_INTERRUPT                                        0     0      0       0
 ---------------------------------------------------------------------------------
 (1) _ADC_INIT                                             0     0      0       0
 ---------------------------------------------------------------------------------
 (1) _ADC_2                                                4     4      0    4642
                                             52 BANK0      4     4      0
                        _ADC_CHANNEL
                            ___fldiv
                            ___flmul
                           ___xxtofl
 ---------------------------------------------------------------------------------
 (1) _ADC_1                                                4     4      0    4642
                                             52 BANK0      4     4      0
                        _ADC_CHANNEL
                            ___fldiv
                            ___flmul
                           ___xxtofl
 ---------------------------------------------------------------------------------
 (2) ___xxtofl                                            14    10      4     474
                                              0 COMMON    14    10      4
 ---------------------------------------------------------------------------------
 (2) ___flmul                                             26    18      8    2569
                                              0 BANK0     26    18      8
                          __Umul8_16
                           ___xxtofl (ARG)
 ---------------------------------------------------------------------------------
 (3) __Umul8_16                                            9     7      2     799
                                              0 COMMON     9     7      2
 ---------------------------------------------------------------------------------
 (2) ___fldiv                                             26    18      8    1425
                                             26 BANK0     26    18      8
                            ___flmul (ARG)
                           ___xxtofl (ARG)
 ---------------------------------------------------------------------------------
 (2) _ADC_CHANNEL                                          2     0      2     174
                                              0 COMMON     2     0      2
 ---------------------------------------------------------------------------------
 Estimated maximum stack depth 3
 ---------------------------------------------------------------------------------

 Call Graph Graphs:

 _main (ROOT)
   _ADC_1
     _ADC_CHANNEL
     ___fldiv
       ___flmul (ARG)
         __Umul8_16
         ___xxtofl (ARG)
       ___xxtofl (ARG)
     ___flmul
       __Umul8_16
       ___xxtofl (ARG)
     ___xxtofl
   _ADC_2
     _ADC_CHANNEL
     ___fldiv
       ___flmul (ARG)
         __Umul8_16
         ___xxtofl (ARG)
       ___xxtofl (ARG)
     ___flmul
       __Umul8_16
       ___xxtofl (ARG)
     ___xxtofl
   _ADC_INIT
   _ADC_INTERRUPT
   _Baudios
   _CONFIG_IO
   _Lcd_Init
     _Lcd_Cmd
       _Lcd_Port
   _Lcd_Set_Cursor
     _Lcd_Cmd
       _Lcd_Port
   _Lcd_Write_String
     _Lcd_Write_Char
       _Lcd_Port
   _Mandar1
     ___fltol
   _Mandar2
     ___fltol
   _OSCILADOR
   _config_rcsta
   _config_txsta
   _sprintf
     __doprnt

 Address spaces:
Name               Size   Autos  Total    Cost      Usage
BITCOMMON            E      0       0       0        0.0%
EEDATA             100      0       0       0        0.0%
NULL                 0      0       0       0        0.0%
CODE                 0      0       0       0        0.0%
COMMON               E      E       E       1      100.0%
BITSFR0              0      0       0       1        0.0%
SFR0                 0      0       0       1        0.0%
BITSFR1              0      0       0       2        0.0%
SFR1                 0      0       0       2        0.0%
STACK                0      0       0       2        0.0%
ABS                  0      0      60       3        0.0%
BITBANK0            50      0       0       4        0.0%
BITSFR3              0      0       0       4        0.0%
SFR3                 0      0       0       4        0.0%
BANK0               50     3A      42       5       82.5%
BITSFR2              0      0       0       5        0.0%
SFR2                 0      0       0       5        0.0%
BITBANK1            50      0       0       6        0.0%
BANK1               50      0      10       7       20.0%
BITBANK3            60      0       0       8        0.0%
BANK3               60      0       0       9        0.0%
BITBANK2            60      0       0      10        0.0%
BANK2               60      0       0      11        0.0%
DATA                 0      0      60      12        0.0%


Microchip Technology PIC Macro Assembler V2.31 build 20201012212115 
Symbol Table                                                                                   Tue Feb 09 21:45:33 2021

             ___fldiv@aexp 0033               ___fldiv@bexp 0032                          pc 0002  
             ___fldiv@sign 002B                         l90 000C                         l91 0012  
                       l92 0013                         l93 0019                         l94 001A  
                       l95 0020                         l96 0021                         l97 0027  
                       l89 0009                         l98 0028                         l99 002E  
                       fsr 0004        __Umul8_16@word_mpld 0006                        l100 002F  
                      l101 0035                        l102 0036                        l103 003C  
                      l120 0069                        l105 003D                        l201 0013  
                      l210 0068                        l123 0015                        l203 0016  
                      l108 0019                        l141 0008                        l117 0023  
                      l213 0013                        l150 0047                        l142 000F  
                      l151 004E                        l143 0016                        l215 0016  
                      l152 0055                        l144 001D                        l160 0003  
                      l153 005C                        l145 0024                        l129 0041  
                      l154 0063                        l146 002B                        l155 006A  
                      l147 0032                        l139 0001                        l163 0004  
                      l156 0071                        l148 0039                        l149 0040  
                      l157 00AF                        l166 0008                        l192 000A  
                      l169 0007                        l186 0014                        l189 0004  
                      l710 0014                        l198 0067                        l703 0354  
                      l712 0026                        l651 005C                        l653 01DC  
                      l741 0067                        l735 0022                        l495 0064  
                      l488 0079                        l673 01C0                        l737 00B9  
                      l498 0079                        l675 01D0                        l667 014E  
                      l691 0360                        l748 0083                        l749 008F  
                      l757 0020                        l697 02CC                        _RD0 0040  
                      _RD1 0041                        _RD2 0042                        _RE0 0048  
                      _RD3 0043                        _RE1 0049                        _RD4 0044  
                      _RD5 0045                        _RD6 0046                        _RD7 0047  
                      fsr0 0004                        indf 0000               ___flmul@aexp 0012  
             ___flmul@bexp 0013         __size_of_CONFIG_IO 0015               ___flmul@sign 000D  
             ___flmul@temp 0018               ___flmul@prod 0014               ___fltol@exp1 000A  
                     l2007 007D                       l1411 0001                       l1421 0025  
                     l1413 0005                       l1511 0007                       l1431 0003  
                     l1423 002C                       l1415 0010                       l1503 0059  
                     l1601 011E                       l1521 001C                       l1513 000D  
                     l1433 000A                       l1425 0033                       l1417 0017  
                     l1505 0069                       l1611 0133                       l1603 011F  
                     l1531 0034                       l1523 0024                       l1515 0011  
                     l1435 000E                       l1427 003A                       l1419 001E  
                     l1451 0016                       l1443 0001                       l1507 006E  
                     l1621 0158                       l1613 0137                       l1605 0128  
                     l1541 0049                       l1533 003A                       l1525 0025  
                     l1517 0012                       l1509 0000                       l1437 001D  
                     l1429 0001                       l1701 00A7                       l1445 0004  
                     l1461 0012                       l1453 0001                       l1463 0000  
                     l1631 0196                       l1623 0166                       l1615 014B  
                     l1607 012E                       l1551 0070                       l1543 0051  
                     l1535 003E                       l1519 0017                       l1527 0027  
                     l1439 0022                       l1711 0130                       l1703 00C3  
                     l1447 000A                       l1455 0004                       l1641 01C6  
                     l1633 01A4                       l1625 016A                       l1609 0132  
                     l1553 0074                       l1545 0052                       l1537 003F  
                     l1529 002F                       l1721 01A3                       l1713 0140  
                     l1705 00EF                       l1449 000D                       l1457 000A  
                     l1481 0029                       l1473 0000                       l1467 0078  
                     l1643 01CA                       l1635 01B3                       l1627 0183  
                     l1619 0153                       l1571 00B5                       l1563 008B  
                     l1539 0044                       l1547 0054                       l1731 0250  
                     l1723 01C0                       l1715 015D                       l1707 010B  
                     l1651 0000                       l1811 0050                       l1803 0033  
                     l1459 000D                       l1483 002A                       l1475 000B  
                     l1645 01CC                       l1637 01B7                       l1629 0189  
                     l1581 00D3                       l1573 00B7                       l1565 009D  
                     l1549 0064                       l1557 007D                       l1741 029C  
                     l1733 0278                       l1725 01ED                       l1717 016D  
                     l1709 0127                       l1661 0017                       l1653 0007  
                     l1821 0087                       l1813 005E                       l1805 0038  
                     l1901 0000                       l1485 0032                       l1639 01BF  
                     l1575 00BC                       l1583 00DC                       l1591 0101  
                     l1567 00A5                       l1559 0082                       l1751 02B1  
                     l1743 029D                       l1735 0281                       l1727 01FD  
                     l1719 018A                       l1671 0033                       l1663 001C  
                     l1655 000D                       l1831 00B1                       l1823 0091  
                     l1815 006E                       l1807 0045                       l1911 000C  
                     l1903 0006                       l1495 0040                       l1487 0034  
                     l1479 0014                       l1593 0107                       l1585 00EE  
                     l1577 00CE                       l1569 00AD                       l1761 02D6  
                     l1753 02B5                       l1745 02A6                       l1737 028F  
                     l1729 022A                       l1681 0048                       l1673 0039  
                     l1665 0024                       l1657 0011                       l1825 00A7  
                     l1817 0079                       l1809 004C                       l1913 000D  
                     l1905 0000                       l1841 0012                       l1489 0038  
                     l1497 0052                       l1921 0000                       l1595 010F  
                     l1587 00EF                       l1579 00D2                       l1771 0314  
                     l1763 02E4                       l1755 02C9                       l1739 0298  
                     l1747 02AC                       l1691 0064                       l1683 0050  
                     l1675 003D                       l1667 0026                       l1659 0012  
                     l1827 00AC                       l1819 007D                       l1915 0014  
                     l1907 0008                       l1931 000E                       l1923 0000  
                     l1851 000F                       l1843 0018                       l1835 0001  
                     l1597 0111                       l1589 00FD                       l1781 0348  
                     l1773 031F                       l1765 02E8                       l1749 02B0  
                     l1685 0052                       l1677 003E                       l1669 002E  
                     l1829 00B0                       l1917 0018                       l1909 000B  
                     l1933 0015                       l1925 0009                       l1861 003F  
                     l1853 001E                       l1845 001D                       l1837 0006  
                     l1941 0003                       l1599 011A                       l1783 034C  
                     l1775 032E                       l1767 0301                       l1759 02D1  
                     l1695 006D                       l1687 005A                       l1679 0043  
                     l1791 0001                       l1919 0063                       l1935 0019  
                     l1927 000C                       l1863 0044                       l1855 0023  
                     l1847 0000                       l1839 000B                       l1871 0000  
                     l1943 0007                       l1785 034D                       l1777 0338  
                     l1769 0307                       l1697 007D                       l1689 005F  
                     l1793 0006                       l1937 0064                       l1929 000D  
                     l1881 0000                       l1865 0053                       l1857 002E  
                     l1849 0009                       l1873 0003                       l1945 0008  
                     l1961 000A                       l1787 0358                       l1779 033A  
                     l1699 008A                       l1795 000A                       l1891 0004  
                     l1867 0059                       l1859 0034                       l1875 001F  
                     l1939 0000                       l1883 0000                       l1947 000C  
                     l1971 0039                       l1963 000F                       l1797 001A  
                     l1893 0005                       l1869 0064                       l1877 0025  
                     l1885 0000                       l1949 001A                       l1981 0061  
                     l1973 0043                       l1965 0019                       l1799 002A  
                     l1879 0000                       l1895 000A                       l1887 0006  
                     l1983 007D                       l1975 004D                       l1967 001E  
                     l1959 0000                       l1897 000B                       l1889 0000  
                     l1985 0085                       l1977 0052                       l1969 0030  
                     l1899 0000                       l1979 0057                       STR_1 0010  
                     STR_2 0022                       u1100 0010                       u1101 000F  
                     u1110 0017                       u1111 0016                       u2000 004B  
                     u1120 001E                       u1200 000B                       u2001 004A  
                     u1121 001D                       u1201 000A                       u1130 0025  
                     u1210 0022                       u1131 0024                       u1300 0011  
                     u2020 006D                       u1140 002C                       u2100 0006  
                     u1220 0038                       u1301 0010                       u2021 006C  
                     u1141 002B                       u2101 0005                       u1221 0037  
                     u1310 0017                       u1150 0033                       u2110 0018  
                     u1230 003F                       u1311 0016                       u2015 005F  
                     u1151 0032                       u2111 0017                       u1231 003E  
                     u1215 001D                       u1320 001C                       u2040 007D  
                     u1160 003A                       u2120 000D                       u1321 001B  
                     u2041 007C                       u1161 0039                       u1410 00D2  
                     u1330 003E                       u1170 000E                       u2050 0083  
                     u1090 0005                       u2130 002F                       u1250 0051  
                     u1411 00D1                       u1331 003D                       u1171 000D  
                     u2051 0082                       u2035 0072                       u1091 0004  
                     u1251 0050                       u1500 0137                       u1340 0044  
                     u2060 0087                       u2140 0041                       u1260 0058  
                     u1501 0136                       u1405 00C7                       u1341 0043  
                     u2061 0086                       u2141 0040                       u1261 0057  
                     u1245 0041                       u1510 014B                       u1430 00EE  
                     u1350 0049                       u1190 0022                       u2070 009C  
                     u2150 0067                       u1511 014A                       u1431 00ED  
                     u1351 0048                       u1191 0021                       u2151 0066  
                     u2207 0004                       u1520 0152                       u1440 0107  
                     u1360 0064                       u1600 0017                       u2080 00AC  
                     u2160 0068                       u1280 0069                       u1521 0151  
                     u1441 0106                       u1425 00D5                       u1361 0063  
                     u1185 0015                       u1601 0016                       u2081 00AB  
                     u2161 0067                       u2217 0013                       u1281 0068  
                     u1530 0158                       u1450 010F                       u1370 0082  
                     u1610 001C                       u2090 00B0                       u1290 006E  
                     u1531 0157                       u1451 010E                       u1435 00EA  
                     u1371 0081                       u1611 001B                       u2091 00AF  
                     u2075 0097                       u2307 0012                       u2227 0020  
                     u1291 006D                       u1275 005B                       u1540 016A  
                     u1380 00BC                       u1620 003D                       u1541 0169  
                     u1381 00BB                       u1701 0119                       u1621 003C  
                     u2317 0011                       u2237 002B                       u1550 0179  
                     u1470 011E                       u1702 0120                       u1630 0043  
                     u1471 011D                       u1703 0127                       u1631 0042  
                     u2247 0036                       u1560 0196                       u1800 025E  
                     u1640 0048                       u1561 0195                       u1465 0113  
                     u1721 014F                       u1641 0047                       u2257 0041  
                     u2177 0049                       u1570 01B3                       u1490 0132  
                     u1722 0156                       u1650 005F                       u1571 01B2  
                     u1555 0174                       u1491 0131                       u1395 00BE  
                     u1811 026A                       u1731 017C                       u1723 015D  
                     u1715 0129                       u1651 005E                       u2267 004E  
                     u2187 005D                       u1580 01CA                       u1900 02D6  
                     u1812 0271                       u1732 0183                       u1660 0064  
                     u1581 01C9                       u1565 0192                       u1485 0121  
                     u1901 02D5                       u1813 0278                       u1805 0259  
                     u1733 018A                       u1661 0063                       u2277 005B  
                     u2197 000F                       u1910 02E8                       u1590 0011  
                     u1575 01AF                       u1911 02E7                       u1751 01B2  
                     u1671 00B5                       u1591 0010                       u2287 0066  
                     u1920 02F7                       u1840 029C                       u1752 01B9  
                     u1672 00BC                       u1841 029B                       u1825 027A  
                     u1761 01DF                       u1753 01C0                       u1745 018C  
                     u1681 00D1                       u1673 00C3                       u2297 0011  
                     u1930 0314                       u1762 01E6                       u1682 00D8  
                     u1931 0313                       u1835 0291                       u1771 020C  
                     u1763 01ED                       u1691 00FD                       u1683 00DF  
                     u1940 032E                       u1860 02B0                       u1780 0236  
                     u1772 0213                       u1692 0104                       u1941 032D  
                     u1925 02F2                       u1861 02AF                       u1773 021A  
                     u1693 010B                       u1950 034C                       u1870 02B5  
                     u1951 034B                       u1935 0310                       u1871 02B4  
                     u1855 029F                       u1791 0242                       u1880 02C9  
                     u1792 0249                       u1960 0006                       u1945 032A  
                     u1881 02C8                       u1793 0250                       u1785 0231  
                     u1961 0005                       u1890 02D0                       u1970 000A  
                     u1891 02CF                       u1971 0009                       u1980 002A  
                     u1981 0029                       u1995 003D     __size_of_ADC_INTERRUPT 000B  
                     _data 0000          ?_Lcd_Write_String 0003           __end_of_ADC_INIT 0004  
                     _main 0000                       btemp 007E                       _volt 0004  
                     start 0000*            ??_config_rcsta 0000         ??_Lcd_Write_String 0005  
          __end_of_Baudios 0005            ___fldiv@new_exp 002C             ??_config_txsta 0000  
          __end_of_Lcd_Cmd 001A            __end_of_Mandar1 0017            __end_of_Mandar2 0017  
       __size_of_OSCILADOR 0005              ___fltol@sign1 0009                      ?_main 0000  
                    _ADC_1 0000                      _ADC_2 0000            __end_of___fldiv 01DD  
          __end_of___flmul 0361            __end_of___fltol 007A                      _ANSEL 0188  
                    _RCREG 001A                      _SPBRG 0099                      _PORTA 0005  
                    _PORTB 0006                      _PORTC 0007                      _PORTE 0009  
  __size_of_Lcd_Set_Cursor 0024                      _TRISA 0085                      _TRISB 0086  
                    _TRISD 0088                      _TRISE 0089                      _TXREG 0019  
                    _volt2 0000                      pclath 000A                      status 0003  
                    wtemp0 007E            __end_of_sprintf 0021           __end_of_Lcd_Init 006A  
         __end_of_Lcd_Port 003E            __initialization 0000          __end_of_CONFIG_IO 0015  
             __end_of_main 0092              _ADC_INTERRUPT 0000                     ??_main 0038  
                   ?_ADC_1 0000                     ?_ADC_2 0000                     _ADCON1 009F  
                   _ADRESH 001E                     _ANSELH 0189                  ??_Baudios 0000  
                   _INTCON 000B          __end_of_OSCILADOR 0005                     _OSCCON 008F  
                ??_Lcd_Cmd 0001    __size_of_Lcd_Write_Char 0016           __end_of___xxtofl 00BA  
                ??_Mandar1 000B                  ??_Mandar2 000B                  ??___fldiv 0022  
                ??___flmul 0008                  ??___fltol 0004             ?_ADC_INTERRUPT 0000  
                ??__doprnt 0000                  ?_ADC_INIT 0000         __size_of__Umul8_16 0027  
     __end_of_config_rcsta 0008       __end_of_config_txsta 0009                  ??_sprintf 0009  
          Lcd_Set_Cursor@a 0006            Lcd_Set_Cursor@b 0004               ___xxtofl@arg 000A  
             ___xxtofl@exp 0009               ___xxtofl@val 0000    __end_of__initialization 0011  
            __end_of_ADC_1 0068              __end_of_ADC_2 0069                 ___fltol@f1 0000  
           __pcstackCOMMON 0000                    ??_ADC_1 0034                    ??_ADC_2 0034  
           _Lcd_Set_Cursor 0000                 ??_ADC_INIT 0000                  ?_Lcd_Init 0000  
                ?_Lcd_Port 0000                 __pbssBANK0 0000                 __pbssBANK1 0000  
            ??_ADC_CHANNEL 0002          __end_of__Umul8_16 0027                 __pmaintext 0000  
          ??_ADC_INTERRUPT 0000  __size_of_Lcd_Write_String 0042     __end_of_Lcd_Set_Cursor 0024  
                ?___xxtofl 0000                 ??_Lcd_Init 0004                 ??_Lcd_Port 0000  
               __stringtab 0000                    _Baudios 0000             _Lcd_Write_Char 0000  
                  _Lcd_Cmd 0000                    _Mandar1 0000                    _Mandar2 0000  
      __end_of_ADC_CHANNEL 00B0                    ___fldiv 0000                    ___flmul 0000  
                  ___fltol 0000                    __doprnt 0000*                 _CONFIG_IO 0000  
    __size_of_config_rcsta 0008            ?_Lcd_Set_Cursor 0004                    __ptext1 0000  
                  __ptext2 0000                    __ptext3 0000      __size_of_config_txsta 0009  
                  __ptext4 0000                    __ptext5 0000                    __ptext6 0000  
                  __ptext7 0000                    __ptext8 0000                    __ptext9 0000  
               ??___xxtofl 0004                    _sprintf 0000                    clrloop0 0001  
   __end_of_Lcd_Write_Char 0016       end_of_initialization 0011                  _OSCILADOR 0000  
             _config_rcsta 0000               _config_txsta 0000                  _RCSTAbits 0018  
                Lcd_Port@a 0000                 ?_CONFIG_IO 0000              ___xxtofl@sign 0008  
                _TRISCbits 0087          __size_of_ADC_INIT 0004                ___fldiv@grs 002E  
              ___fldiv@rem 0027            ?_Lcd_Write_Char 0000          Lcd_Write_String@a 0003  
        Lcd_Write_String@i 0008                ___flmul@grs 000E                  _TXSTAbits 0098  
              _ADC_CHANNEL 0000                 ?_OSCILADOR 0000           _Lcd_Write_String 0000  
      start_initialization 0000          __size_of_Lcd_Init 006A          __size_of_Lcd_Port 003E  
                __Umul8_16 0000            Lcd_Write_Char@a 0002                ??_CONFIG_IO 0000  
                ___fldiv@a 001A                  ___fldiv@b 001E                  ___flmul@a 0004  
                ___flmul@b 0000                  ___latbits 0002              __pcstackBANK0 0000  
        __size_of___xxtofl 00BA           ADC_CHANNEL@canal 0000                   ?_Baudios 0000  
                __doprnt$0 0000                  __doprnt$1 0000                  __doprnt$2 0001  
                 ?_Lcd_Cmd 0000                   ?_Mandar1 0000                   ?_Mandar2 0000  
              ??_OSCILADOR 0000           ??_Lcd_Set_Cursor 0005                   ?___fldiv 001A  
                 ?___flmul 0000                   ?___fltol 0000                 ?__Umul8_16 0000  
    __end_of_ADC_INTERRUPT 000B                   ?__doprnt 0000                  __pstrings 0000  
           __size_of_ADC_1 0068             __size_of_ADC_2 0069                   _ADC_INIT 0000  
                 ?_sprintf 0000                  clear_ram0 0000                   _PIE1bits 008C  
                 Lcd_Cmd@a 0003                   _PIR1bits 000C                 _ADCON0bits 001F  
              __stringbase 000F           ??_Lcd_Write_Char 0001                   _Lcd_Init 0000  
                 _Lcd_Port 0000   __end_of_Lcd_Write_String 0042           __size_of_Baudios 0005  
         __size_of_Lcd_Cmd 001A               ?_ADC_CHANNEL 0000           __size_of_Mandar1 0017  
         __size_of_Mandar2 0017                ??__Umul8_16 0002           __size_of___fldiv 01DD  
         __size_of___flmul 0361           __size_of___fltol 007A         __end_of__stringtab 0010  
                 ___xxtofl 0000                   __ptext10 0000                   __ptext11 0000  
                 __ptext20 0000                   __ptext12 0000                   __ptext21 0000  
                 __ptext13 0000                   __ptext22 0000                   __ptext14 0000  
                 __ptext23 0000                   __ptext15 0000                   __ptext24 0000  
                 __ptext16 0000                   __ptext17 0000                   __ptext18 0000  
                 __ptext19 0000           __size_of_sprintf 0021              __size_of_main 0092  
                sprintf@ap 0000                  sprintf@pb 0002                  sprintf@wh 0001  
                stringcode 000A         Lcd_Set_Cursor@temp 0007     __Umul8_16@multiplicand 0000  
               _OPTION_REG 0081                   sprintf@f 0000                   stringdir 000A  
                 stringtab 0000       __Umul8_16@multiplier 0008              ?_config_rcsta 0000  
     __size_of_ADC_CHANNEL 00B0          __Umul8_16@product 0004              ?_config_txsta 0000  
